---
triple:          'arm64-apple-darwin'
binary-path:     Player_tests.exe
relocations:
  - { offsetInCU: 0x52, offset: 0x52, size: 0x8, addend: 0x0, symName: __ZL10RANK_NAMES, symObjAddr: 0x26C8, symBinAddr: 0x100010428, symSize: 0x0 }
  - { offsetInCU: 0x81, offset: 0x81, size: 0x8, addend: 0x0, symName: __ZL10SUIT_NAMES, symObjAddr: 0x2730, symBinAddr: 0x100010490, symSize: 0x0 }
  - { offsetInCU: 0x306F, offset: 0x306F, size: 0x8, addend: 0x0, symName: __ZNSt3__124__put_character_sequenceB7v160006IcNS_11char_traitsIcEEEERNS_13basic_ostreamIT_T0_EES7_PKS4_m, symObjAddr: 0x1514, symBinAddr: 0x10000246C, symSize: 0x1EC }
  - { offsetInCU: 0x4EC5, offset: 0x4EC5, size: 0x8, addend: 0x0, symName: __ZNSt3__1eqB7v160006IcNS_11char_traitsIcEENS_9allocatorIcEEEEbRKNS_12basic_stringIT_T0_T1_EEPKS6_, symObjAddr: 0x90, symBinAddr: 0x100000FE8, symSize: 0xAC }
  - { offsetInCU: 0x4F2C, offset: 0x4F2C, size: 0x8, addend: 0x0, symName: __ZNSt3__1lsB7v160006INS_11char_traitsIcEEEERNS_13basic_ostreamIcT_EES6_PKc, symObjAddr: 0x17C, symBinAddr: 0x1000010D4, symSize: 0x48 }
  - { offsetInCU: 0x4F72, offset: 0x4F72, size: 0x8, addend: 0x0, symName: __ZNSt3__1rsB7v160006IcNS_11char_traitsIcEENS_9allocatorIcEEEERNS_13basic_istreamIT_T0_EES9_RNS_12basic_stringIS6_S7_T1_EE, symObjAddr: 0x2AC, symBinAddr: 0x100001204, symSize: 0x30C }
  - { offsetInCU: 0x503F, offset: 0x503F, size: 0x8, addend: 0x0, symName: __ZNSt3__118__constexpr_strlenB7v160006EPKc, symObjAddr: 0x1424, symBinAddr: 0x10000237C, symSize: 0x24 }
  - { offsetInCU: 0x506B, offset: 0x506B, size: 0x8, addend: 0x0, symName: __ZNSt3__116__pad_and_outputB7v160006IcNS_11char_traitsIcEEEENS_19ostreambuf_iteratorIT_T0_EES6_PKS4_S8_S8_RNS_8ios_baseES4_, symObjAddr: 0x171C, symBinAddr: 0x100002674, symSize: 0x240 }
  - { offsetInCU: 0x513A, offset: 0x513A, size: 0x8, addend: 0x0, symName: __ZNSt3__119__debug_db_insert_cB7v160006INS_12basic_stringIcNS_11char_traitsIcEENS_9allocatorIcEEEEEEvPT_, symObjAddr: 0x1BD0, symBinAddr: 0x100002B28, symSize: 0x10 }
  - { offsetInCU: 0x516B, offset: 0x516B, size: 0x8, addend: 0x0, symName: __ZNSt3__112__to_addressB7v160006IcEEPT_S2_, symObjAddr: 0x1C9C, symBinAddr: 0x100002BF4, symSize: 0x14 }
  - { offsetInCU: 0x51D3, offset: 0x51D3, size: 0x8, addend: 0x0, symName: __ZNSt3__19use_facetB7v160006INS_5ctypeIcEEEERKT_RKNS_6localeE, symObjAddr: 0x1EE4, symBinAddr: 0x100002E3C, symSize: 0x2C }
  - { offsetInCU: 0x5D27, offset: 0x5D27, size: 0x8, addend: 0x0, symName: __ZNSt3__125__debug_db_invalidate_allB7v160006INS_12basic_stringIcNS_11char_traitsIcEENS_9allocatorIcEEEEEEvPT_, symObjAddr: 0x2374, symBinAddr: 0x1000032CC, symSize: 0x10 }
  - { offsetInCU: 0x84EC, offset: 0x84EC, size: 0x8, addend: 0x0, symName: __Z14string_to_rankRKNSt3__112basic_stringIcNS_11char_traitsIcEENS_9allocatorIcEEEE, symObjAddr: 0x0, symBinAddr: 0x100000F58, symSize: 0x90 }
  - { offsetInCU: 0x8534, offset: 0x8534, size: 0x8, addend: 0x0, symName: __ZlsRNSt3__113basic_ostreamIcNS_11char_traitsIcEEEE4Rank, symObjAddr: 0x13C, symBinAddr: 0x100001094, symSize: 0x40 }
  - { offsetInCU: 0x856E, offset: 0x856E, size: 0x8, addend: 0x0, symName: __ZrsRNSt3__113basic_istreamIcNS_11char_traitsIcEEEER4Rank, symObjAddr: 0x1C4, symBinAddr: 0x10000111C, symSize: 0xBC }
  - { offsetInCU: 0x85B6, offset: 0x85B6, size: 0x8, addend: 0x0, symName: __ZNSt3__112basic_stringIcNS_11char_traitsIcEENS_9allocatorIcEEEC1B7v160006Ev, symObjAddr: 0x280, symBinAddr: 0x1000011D8, symSize: 0x2C }
  - { offsetInCU: 0x85DE, offset: 0x85DE, size: 0x8, addend: 0x0, symName: __ZNKSt3__19basic_iosIcNS_11char_traitsIcEEEcvbB7v160006Ev, symObjAddr: 0x5B8, symBinAddr: 0x100001510, symSize: 0x2C }
  - { offsetInCU: 0x8602, offset: 0x8602, size: 0x8, addend: 0x0, symName: __Z14string_to_suitRKNSt3__112basic_stringIcNS_11char_traitsIcEENS_9allocatorIcEEEE, symObjAddr: 0x5E4, symBinAddr: 0x10000153C, symSize: 0x90 }
  - { offsetInCU: 0x864A, offset: 0x864A, size: 0x8, addend: 0x0, symName: __ZlsRNSt3__113basic_ostreamIcNS_11char_traitsIcEEEE4Suit, symObjAddr: 0x674, symBinAddr: 0x1000015CC, symSize: 0x40 }
  - { offsetInCU: 0x8684, offset: 0x8684, size: 0x8, addend: 0x0, symName: __ZrsRNSt3__113basic_istreamIcNS_11char_traitsIcEEEER4Suit, symObjAddr: 0x6B4, symBinAddr: 0x10000160C, symSize: 0xBC }
  - { offsetInCU: 0x87D2, offset: 0x87D2, size: 0x8, addend: 0x0, symName: __ZN4CardC2Ev, symObjAddr: 0x770, symBinAddr: 0x1000016C8, symSize: 0x1C }
  - { offsetInCU: 0x87FC, offset: 0x87FC, size: 0x8, addend: 0x0, symName: __ZN4CardC1Ev, symObjAddr: 0x78C, symBinAddr: 0x1000016E4, symSize: 0x2C }
  - { offsetInCU: 0x8827, offset: 0x8827, size: 0x8, addend: 0x0, symName: __ZN4CardC2E4Rank4Suit, symObjAddr: 0x7B8, symBinAddr: 0x100001710, symSize: 0x2C }
  - { offsetInCU: 0x886D, offset: 0x886D, size: 0x8, addend: 0x0, symName: __ZN4CardC1E4Rank4Suit, symObjAddr: 0x7E4, symBinAddr: 0x10000173C, symSize: 0x3C }
  - { offsetInCU: 0x88B4, offset: 0x88B4, size: 0x8, addend: 0x0, symName: __ZNK4Card8get_rankEv, symObjAddr: 0x820, symBinAddr: 0x100001778, symSize: 0x18 }
  - { offsetInCU: 0x88DB, offset: 0x88DB, size: 0x8, addend: 0x0, symName: __ZNK4Card8get_suitEv, symObjAddr: 0x838, symBinAddr: 0x100001790, symSize: 0x18 }
  - { offsetInCU: 0x8902, offset: 0x8902, size: 0x8, addend: 0x0, symName: __ZNK4Card8get_suitE4Suit, symObjAddr: 0x850, symBinAddr: 0x1000017A8, symSize: 0x58 }
  - { offsetInCU: 0x8937, offset: 0x8937, size: 0x8, addend: 0x0, symName: __ZNK4Card13is_left_bowerE4Suit, symObjAddr: 0x8A8, symBinAddr: 0x100001800, symSize: 0x78 }
  - { offsetInCU: 0x897A, offset: 0x897A, size: 0x8, addend: 0x0, symName: __ZNK4Card14is_face_or_aceEv, symObjAddr: 0x920, symBinAddr: 0x100001878, symSize: 0x94 }
  - { offsetInCU: 0x89A1, offset: 0x89A1, size: 0x8, addend: 0x0, symName: __ZNK4Card14is_right_bowerE4Suit, symObjAddr: 0x9B4, symBinAddr: 0x10000190C, symSize: 0x5C }
  - { offsetInCU: 0x89D5, offset: 0x89D5, size: 0x8, addend: 0x0, symName: __Z9Suit_next4Suit, symObjAddr: 0xA10, symBinAddr: 0x100001968, symSize: 0x7C }
  - { offsetInCU: 0x8A02, offset: 0x8A02, size: 0x8, addend: 0x0, symName: __ZNK4Card8is_trumpE4Suit, symObjAddr: 0xA8C, symBinAddr: 0x1000019E4, symSize: 0x64 }
  - { offsetInCU: 0x8A36, offset: 0x8A36, size: 0x8, addend: 0x0, symName: __ZlsRNSt3__113basic_ostreamIcNS_11char_traitsIcEEEERK4Card, symObjAddr: 0xAF0, symBinAddr: 0x100001A48, symSize: 0x7C }
  - { offsetInCU: 0x8A70, offset: 0x8A70, size: 0x8, addend: 0x0, symName: __ZrsRNSt3__113basic_istreamIcNS_11char_traitsIcEEEER4Card, symObjAddr: 0xB6C, symBinAddr: 0x100001AC4, symSize: 0x100 }
  - { offsetInCU: 0x8AD4, offset: 0x8AD4, size: 0x8, addend: 0x0, symName: __ZltRK4CardS1_, symObjAddr: 0xC6C, symBinAddr: 0x100001BC4, symSize: 0xBC }
  - { offsetInCU: 0x8B0E, offset: 0x8B0E, size: 0x8, addend: 0x0, symName: __ZleRK4CardS1_, symObjAddr: 0xD28, symBinAddr: 0x100001C80, symSize: 0xBC }
  - { offsetInCU: 0x8B48, offset: 0x8B48, size: 0x8, addend: 0x0, symName: __ZgtRK4CardS1_, symObjAddr: 0xDE4, symBinAddr: 0x100001D3C, symSize: 0xBC }
  - { offsetInCU: 0x8B82, offset: 0x8B82, size: 0x8, addend: 0x0, symName: __ZgeRK4CardS1_, symObjAddr: 0xEA0, symBinAddr: 0x100001DF8, symSize: 0xBC }
  - { offsetInCU: 0x8BBC, offset: 0x8BBC, size: 0x8, addend: 0x0, symName: __ZeqRK4CardS1_, symObjAddr: 0xF5C, symBinAddr: 0x100001EB4, symSize: 0x88 }
  - { offsetInCU: 0x8BF6, offset: 0x8BF6, size: 0x8, addend: 0x0, symName: __ZneRK4CardS1_, symObjAddr: 0xFE4, symBinAddr: 0x100001F3C, symSize: 0xBC }
  - { offsetInCU: 0x8C30, offset: 0x8C30, size: 0x8, addend: 0x0, symName: __Z9Card_lessRK4CardS1_4Suit, symObjAddr: 0x10A0, symBinAddr: 0x100001FF8, symSize: 0xDC }
  - { offsetInCU: 0x8C78, offset: 0x8C78, size: 0x8, addend: 0x0, symName: __Z9Card_lessRK4CardS1_S1_4Suit, symObjAddr: 0x117C, symBinAddr: 0x1000020D4, symSize: 0x214 }
  - { offsetInCU: 0x8CCF, offset: 0x8CCF, size: 0x8, addend: 0x0, symName: __ZNSt3__111char_traitsIcE6lengthEPKc, symObjAddr: 0x1390, symBinAddr: 0x1000022E8, symSize: 0x34 }
  - { offsetInCU: 0x8CF1, offset: 0x8CF1, size: 0x8, addend: 0x0, symName: __ZNKSt3__112basic_stringIcNS_11char_traitsIcEENS_9allocatorIcEEE4sizeB7v160006Ev, symObjAddr: 0x13C4, symBinAddr: 0x10000231C, symSize: 0x54 }
  - { offsetInCU: 0x8D15, offset: 0x8D15, size: 0x8, addend: 0x0, symName: __ZNKSt3__112basic_stringIcNS_11char_traitsIcEENS_9allocatorIcEEE9__is_longB7v160006Ev, symObjAddr: 0x1448, symBinAddr: 0x1000023A0, symSize: 0x38 }
  - { offsetInCU: 0x8D39, offset: 0x8D39, size: 0x8, addend: 0x0, symName: __ZNKSt3__112basic_stringIcNS_11char_traitsIcEENS_9allocatorIcEEE15__get_long_sizeB7v160006Ev, symObjAddr: 0x1480, symBinAddr: 0x1000023D8, symSize: 0x28 }
  - { offsetInCU: 0x8D5D, offset: 0x8D5D, size: 0x8, addend: 0x0, symName: __ZNKSt3__112basic_stringIcNS_11char_traitsIcEENS_9allocatorIcEEE16__get_short_sizeB7v160006Ev, symObjAddr: 0x14A8, symBinAddr: 0x100002400, symSize: 0x34 }
  - { offsetInCU: 0x8D81, offset: 0x8D81, size: 0x8, addend: 0x0, symName: __ZNKSt3__117__compressed_pairINS_12basic_stringIcNS_11char_traitsIcEENS_9allocatorIcEEE5__repES5_E5firstB7v160006Ev, symObjAddr: 0x14DC, symBinAddr: 0x100002434, symSize: 0x24 }
  - { offsetInCU: 0x8DA6, offset: 0x8DA6, size: 0x8, addend: 0x0, symName: __ZNKSt3__122__compressed_pair_elemINS_12basic_stringIcNS_11char_traitsIcEENS_9allocatorIcEEE5__repELi0ELb0EE5__getB7v160006Ev, symObjAddr: 0x1500, symBinAddr: 0x100002458, symSize: 0x14 }
  - { offsetInCU: 0x8DE9, offset: 0x8DE9, size: 0x8, addend: 0x0, symName: __ZNKSt3__113basic_ostreamIcNS_11char_traitsIcEEE6sentrycvbB7v160006Ev, symObjAddr: 0x1700, symBinAddr: 0x100002658, symSize: 0x1C }
  - { offsetInCU: 0x8E0D, offset: 0x8E0D, size: 0x8, addend: 0x0, symName: __ZNSt3__119ostreambuf_iteratorIcNS_11char_traitsIcEEEC1B7v160006ERNS_13basic_ostreamIcS2_EE, symObjAddr: 0x195C, symBinAddr: 0x1000028B4, symSize: 0x34 }
  - { offsetInCU: 0x8E44, offset: 0x8E44, size: 0x8, addend: 0x0, symName: __ZNKSt3__18ios_base5flagsB7v160006Ev, symObjAddr: 0x1990, symBinAddr: 0x1000028E8, symSize: 0x18 }
  - { offsetInCU: 0x8E6B, offset: 0x8E6B, size: 0x8, addend: 0x0, symName: __ZNKSt3__19basic_iosIcNS_11char_traitsIcEEE4fillB7v160006Ev, symObjAddr: 0x19A8, symBinAddr: 0x100002900, symSize: 0x64 }
  - { offsetInCU: 0x8E92, offset: 0x8E92, size: 0x8, addend: 0x0, symName: __ZNKSt3__119ostreambuf_iteratorIcNS_11char_traitsIcEEE6failedB7v160006Ev, symObjAddr: 0x1A0C, symBinAddr: 0x100002964, symSize: 0x24 }
  - { offsetInCU: 0x8EB6, offset: 0x8EB6, size: 0x8, addend: 0x0, symName: __ZNSt3__19basic_iosIcNS_11char_traitsIcEEE8setstateB7v160006Ej, symObjAddr: 0x1A30, symBinAddr: 0x100002988, symSize: 0x2C }
  - { offsetInCU: 0x8EEA, offset: 0x8EEA, size: 0x8, addend: 0x0, symName: __ZNKSt3__18ios_base5widthB7v160006Ev, symObjAddr: 0x1A5C, symBinAddr: 0x1000029B4, symSize: 0x18 }
  - { offsetInCU: 0x8F10, offset: 0x8F10, size: 0x8, addend: 0x0, symName: __ZNSt3__115basic_streambufIcNS_11char_traitsIcEEE5sputnB7v160006EPKcl, symObjAddr: 0x1A74, symBinAddr: 0x1000029CC, symSize: 0x3C }
  - { offsetInCU: 0x8F50, offset: 0x8F50, size: 0x8, addend: 0x0, symName: __ZNSt3__112basic_stringIcNS_11char_traitsIcEENS_9allocatorIcEEEC1B7v160006Emc, symObjAddr: 0x1AB0, symBinAddr: 0x100002A08, symSize: 0x3C }
  - { offsetInCU: 0x8F96, offset: 0x8F96, size: 0x8, addend: 0x0, symName: __ZNSt3__112basic_stringIcNS_11char_traitsIcEENS_9allocatorIcEEE4dataB7v160006Ev, symObjAddr: 0x1AEC, symBinAddr: 0x100002A44, symSize: 0x28 }
  - { offsetInCU: 0x8FBB, offset: 0x8FBB, size: 0x8, addend: 0x0, symName: __ZNSt3__18ios_base5widthB7v160006El, symObjAddr: 0x1B14, symBinAddr: 0x100002A6C, symSize: 0x2C }
  - { offsetInCU: 0x8FFF, offset: 0x8FFF, size: 0x8, addend: 0x0, symName: __ZNSt3__112basic_stringIcNS_11char_traitsIcEENS_9allocatorIcEEEC2B7v160006Emc, symObjAddr: 0x1B40, symBinAddr: 0x100002A98, symSize: 0x54 }
  - { offsetInCU: 0x904A, offset: 0x904A, size: 0x8, addend: 0x0, symName: __ZNSt3__117__compressed_pairINS_12basic_stringIcNS_11char_traitsIcEENS_9allocatorIcEEE5__repES5_EC1B7v160006INS_18__default_init_tagESA_EEOT_OT0_, symObjAddr: 0x1B94, symBinAddr: 0x100002AEC, symSize: 0x3C }
  - { offsetInCU: 0x90A0, offset: 0x90A0, size: 0x8, addend: 0x0, symName: __ZNSt3__117__compressed_pairINS_12basic_stringIcNS_11char_traitsIcEENS_9allocatorIcEEE5__repES5_EC2B7v160006INS_18__default_init_tagESA_EEOT_OT0_, symObjAddr: 0x1BE0, symBinAddr: 0x100002B38, symSize: 0x3C }
  - { offsetInCU: 0x90F7, offset: 0x90F7, size: 0x8, addend: 0x0, symName: __ZNSt3__122__compressed_pair_elemINS_12basic_stringIcNS_11char_traitsIcEENS_9allocatorIcEEE5__repELi0ELb0EEC2B7v160006ENS_18__default_init_tagE, symObjAddr: 0x1C1C, symBinAddr: 0x100002B74, symSize: 0x14 }
  - { offsetInCU: 0x912A, offset: 0x912A, size: 0x8, addend: 0x0, symName: __ZNSt3__122__compressed_pair_elemINS_9allocatorIcEELi1ELb1EEC2B7v160006ENS_18__default_init_tagE, symObjAddr: 0x1C30, symBinAddr: 0x100002B88, symSize: 0x2C }
  - { offsetInCU: 0x915D, offset: 0x915D, size: 0x8, addend: 0x0, symName: __ZNSt3__19allocatorIcEC2B7v160006Ev, symObjAddr: 0x1C5C, symBinAddr: 0x100002BB4, symSize: 0x2C }
  - { offsetInCU: 0x9186, offset: 0x9186, size: 0x8, addend: 0x0, symName: __ZNSt3__116__non_trivial_ifILb1ENS_9allocatorIcEEEC2B7v160006Ev, symObjAddr: 0x1C88, symBinAddr: 0x100002BE0, symSize: 0x14 }
  - { offsetInCU: 0x91AE, offset: 0x91AE, size: 0x8, addend: 0x0, symName: __ZNSt3__112basic_stringIcNS_11char_traitsIcEENS_9allocatorIcEEE13__get_pointerB7v160006Ev, symObjAddr: 0x1CB0, symBinAddr: 0x100002C08, symSize: 0x54 }
  - { offsetInCU: 0x91D2, offset: 0x91D2, size: 0x8, addend: 0x0, symName: __ZNSt3__112basic_stringIcNS_11char_traitsIcEENS_9allocatorIcEEE18__get_long_pointerB7v160006Ev, symObjAddr: 0x1D04, symBinAddr: 0x100002C5C, symSize: 0x28 }
  - { offsetInCU: 0x91F6, offset: 0x91F6, size: 0x8, addend: 0x0, symName: __ZNSt3__112basic_stringIcNS_11char_traitsIcEENS_9allocatorIcEEE19__get_short_pointerB7v160006Ev, symObjAddr: 0x1D2C, symBinAddr: 0x100002C84, symSize: 0x28 }
  - { offsetInCU: 0x921A, offset: 0x921A, size: 0x8, addend: 0x0, symName: __ZNSt3__117__compressed_pairINS_12basic_stringIcNS_11char_traitsIcEENS_9allocatorIcEEE5__repES5_E5firstB7v160006Ev, symObjAddr: 0x1D54, symBinAddr: 0x100002CAC, symSize: 0x24 }
  - { offsetInCU: 0x923F, offset: 0x923F, size: 0x8, addend: 0x0, symName: __ZNSt3__122__compressed_pair_elemINS_12basic_stringIcNS_11char_traitsIcEENS_9allocatorIcEEE5__repELi0ELb0EE5__getB7v160006Ev, symObjAddr: 0x1D78, symBinAddr: 0x100002CD0, symSize: 0x14 }
  - { offsetInCU: 0x9264, offset: 0x9264, size: 0x8, addend: 0x0, symName: __ZNSt3__114pointer_traitsIPcE10pointer_toB7v160006ERc, symObjAddr: 0x1D8C, symBinAddr: 0x100002CE4, symSize: 0x14 }
  - { offsetInCU: 0x9286, offset: 0x9286, size: 0x8, addend: 0x0, symName: __ZNSt3__119ostreambuf_iteratorIcNS_11char_traitsIcEEEC2B7v160006ERNS_13basic_ostreamIcS2_EE, symObjAddr: 0x1DA0, symBinAddr: 0x100002CF8, symSize: 0x54 }
  - { offsetInCU: 0x92BD, offset: 0x92BD, size: 0x8, addend: 0x0, symName: __ZNKSt3__19basic_iosIcNS_11char_traitsIcEEE5rdbufB7v160006Ev, symObjAddr: 0x1DF4, symBinAddr: 0x100002D4C, symSize: 0x24 }
  - { offsetInCU: 0x92E4, offset: 0x92E4, size: 0x8, addend: 0x0, symName: __ZNKSt3__18ios_base5rdbufB7v160006Ev, symObjAddr: 0x1E18, symBinAddr: 0x100002D70, symSize: 0x18 }
  - { offsetInCU: 0x9309, offset: 0x9309, size: 0x8, addend: 0x0, symName: __ZNSt3__111char_traitsIcE11eq_int_typeEii, symObjAddr: 0x1E30, symBinAddr: 0x100002D88, symSize: 0x28 }
  - { offsetInCU: 0x933A, offset: 0x933A, size: 0x8, addend: 0x0, symName: __ZNSt3__111char_traitsIcE3eofEv, symObjAddr: 0x1E58, symBinAddr: 0x100002DB0, symSize: 0x8 }
  - { offsetInCU: 0x934E, offset: 0x934E, size: 0x8, addend: 0x0, symName: __ZNKSt3__19basic_iosIcNS_11char_traitsIcEEE5widenB7v160006Ec, symObjAddr: 0x1E60, symBinAddr: 0x100002DB8, symSize: 0x84 }
  - { offsetInCU: 0x93B0, offset: 0x93B0, size: 0x8, addend: 0x0, symName: __ZNKSt3__15ctypeIcE5widenB7v160006Ec, symObjAddr: 0x1F10, symBinAddr: 0x100002E68, symSize: 0x38 }
  - { offsetInCU: 0x93E4, offset: 0x93E4, size: 0x8, addend: 0x0, symName: __ZNSt3__18ios_base8setstateB7v160006Ej, symObjAddr: 0x1F48, symBinAddr: 0x100002EA0, symSize: 0x34 }
  - { offsetInCU: 0x9419, offset: 0x9419, size: 0x8, addend: 0x0, symName: __ZNSt3__112basic_stringIcNS_11char_traitsIcEENS_9allocatorIcEEEC2B7v160006Ev, symObjAddr: 0x1F7C, symBinAddr: 0x100002ED4, symSize: 0x50 }
  - { offsetInCU: 0x9441, offset: 0x9441, size: 0x8, addend: 0x0, symName: __ZNSt3__112basic_stringIcNS_11char_traitsIcEENS_9allocatorIcEEE14__default_initB7v160006Ev, symObjAddr: 0x1FCC, symBinAddr: 0x100002F24, symSize: 0x40 }
  - { offsetInCU: 0x94F8, offset: 0x94F8, size: 0x8, addend: 0x0, symName: __ZNKSt3__113basic_istreamIcNS_11char_traitsIcEEE6sentrycvbB7v160006Ev, symObjAddr: 0x200C, symBinAddr: 0x100002F64, symSize: 0x1C }
  - { offsetInCU: 0x951D, offset: 0x951D, size: 0x8, addend: 0x0, symName: __ZNSt3__112basic_stringIcNS_11char_traitsIcEENS_9allocatorIcEEE5clearB7v160006Ev, symObjAddr: 0x2028, symBinAddr: 0x100002F80, symSize: 0x88 }
  - { offsetInCU: 0x9543, offset: 0x9543, size: 0x8, addend: 0x0, symName: __ZNKSt3__112basic_stringIcNS_11char_traitsIcEENS_9allocatorIcEEE8max_sizeB7v160006Ev, symObjAddr: 0x20B0, symBinAddr: 0x100003008, symSize: 0xAC }
  - { offsetInCU: 0x9594, offset: 0x9594, size: 0x8, addend: 0x0, symName: __ZNSt3__114numeric_limitsIlE3maxB7v160006Ev, symObjAddr: 0x215C, symBinAddr: 0x1000030B4, symSize: 0x14 }
  - { offsetInCU: 0x95A7, offset: 0x95A7, size: 0x8, addend: 0x0, symName: __ZNSt3__115basic_streambufIcNS_11char_traitsIcEEE5sgetcB7v160006Ev, symObjAddr: 0x2170, symBinAddr: 0x1000030C8, symSize: 0x70 }
  - { offsetInCU: 0x95CC, offset: 0x95CC, size: 0x8, addend: 0x0, symName: __ZNSt3__111char_traitsIcE12to_char_typeEi, symObjAddr: 0x21E0, symBinAddr: 0x100003138, symSize: 0x18 }
  - { offsetInCU: 0x95EE, offset: 0x95EE, size: 0x8, addend: 0x0, symName: __ZNKSt3__15ctypeIcE2isB7v160006Ejc, symObjAddr: 0x21F8, symBinAddr: 0x100003150, symSize: 0x7C }
  - { offsetInCU: 0x9630, offset: 0x9630, size: 0x8, addend: 0x0, symName: __ZNSt3__115basic_streambufIcNS_11char_traitsIcEEE6sbumpcB7v160006Ev, symObjAddr: 0x2274, symBinAddr: 0x1000031CC, symSize: 0x78 }
  - { offsetInCU: 0x9655, offset: 0x9655, size: 0x8, addend: 0x0, symName: __ZNSt3__18ios_base18__setstate_nothrowB7v160006Ej, symObjAddr: 0x22EC, symBinAddr: 0x100003244, symSize: 0x64 }
  - { offsetInCU: 0x9688, offset: 0x9688, size: 0x8, addend: 0x0, symName: __ZNKSt3__19basic_iosIcNS_11char_traitsIcEEE10exceptionsB7v160006Ev, symObjAddr: 0x2350, symBinAddr: 0x1000032A8, symSize: 0x24 }
  - { offsetInCU: 0x96AD, offset: 0x96AD, size: 0x8, addend: 0x0, symName: __ZNSt3__111char_traitsIcE6assignERcRKc, symObjAddr: 0x2384, symBinAddr: 0x1000032DC, symSize: 0x24 }
  - { offsetInCU: 0x96DD, offset: 0x96DD, size: 0x8, addend: 0x0, symName: __ZNSt3__112basic_stringIcNS_11char_traitsIcEENS_9allocatorIcEEE15__set_long_sizeB7v160006Em, symObjAddr: 0x23A8, symBinAddr: 0x100003300, symSize: 0x38 }
  - { offsetInCU: 0x9710, offset: 0x9710, size: 0x8, addend: 0x0, symName: __ZNSt3__112basic_stringIcNS_11char_traitsIcEENS_9allocatorIcEEE16__set_short_sizeB7v160006Em, symObjAddr: 0x23E0, symBinAddr: 0x100003338, symSize: 0x78 }
  - { offsetInCU: 0x974E, offset: 0x974E, size: 0x8, addend: 0x0, symName: __ZNSt3__116allocator_traitsINS_9allocatorIcEEE8max_sizeB7v160006IS2_vEEmRKS2_, symObjAddr: 0x2458, symBinAddr: 0x1000033B0, symSize: 0x24 }
  - { offsetInCU: 0x977B, offset: 0x977B, size: 0x8, addend: 0x0, symName: __ZNKSt3__112basic_stringIcNS_11char_traitsIcEENS_9allocatorIcEEE7__allocB7v160006Ev, symObjAddr: 0x247C, symBinAddr: 0x1000033D4, symSize: 0x24 }
  - { offsetInCU: 0x97A0, offset: 0x97A0, size: 0x8, addend: 0x0, symName: __ZNSt3__114numeric_limitsImE3maxB7v160006Ev, symObjAddr: 0x24A0, symBinAddr: 0x1000033F8, symSize: 0x14 }
  - { offsetInCU: 0x97B4, offset: 0x97B4, size: 0x8, addend: 0x0, symName: __ZNKSt3__19allocatorIcE8max_sizeB7v160006Ev, symObjAddr: 0x24B4, symBinAddr: 0x10000340C, symSize: 0x14 }
  - { offsetInCU: 0x97D8, offset: 0x97D8, size: 0x8, addend: 0x0, symName: __ZNKSt3__117__compressed_pairINS_12basic_stringIcNS_11char_traitsIcEENS_9allocatorIcEEE5__repES5_E6secondB7v160006Ev, symObjAddr: 0x24C8, symBinAddr: 0x100003420, symSize: 0x24 }
  - { offsetInCU: 0x97FD, offset: 0x97FD, size: 0x8, addend: 0x0, symName: __ZNKSt3__122__compressed_pair_elemINS_9allocatorIcEELi1ELb1EE5__getB7v160006Ev, symObjAddr: 0x24EC, symBinAddr: 0x100003444, symSize: 0x14 }
  - { offsetInCU: 0x9822, offset: 0x9822, size: 0x8, addend: 0x0, symName: __ZNSt3__123__libcpp_numeric_limitsImLb1EE3maxB7v160006Ev, symObjAddr: 0x2500, symBinAddr: 0x100003458, symSize: 0x8 }
  - { offsetInCU: 0x9836, offset: 0x9836, size: 0x8, addend: 0x0, symName: __ZNSt3__123__libcpp_numeric_limitsIlLb1EE3maxB7v160006Ev, symObjAddr: 0x2508, symBinAddr: 0x100003460, symSize: 0x8 }
  - { offsetInCU: 0x984A, offset: 0x984A, size: 0x8, addend: 0x0, symName: __ZNSt3__111char_traitsIcE11to_int_typeEc, symObjAddr: 0x2510, symBinAddr: 0x100003468, symSize: 0x14 }
  - { offsetInCU: 0x986C, offset: 0x986C, size: 0x8, addend: 0x0, symName: __Z7isasciii, symObjAddr: 0x2524, symBinAddr: 0x10000347C, symSize: 0x24 }
  - { offsetInCU: 0x9899, offset: 0x9899, size: 0x8, addend: 0x0, symName: __ZNKSt3__18ios_base10exceptionsB7v160006Ev, symObjAddr: 0x2548, symBinAddr: 0x1000034A0, symSize: 0x18 }
  - { offsetInCU: 0x98BF, offset: 0x98BF, size: 0x8, addend: 0x0, symName: __ZNKSt3__19basic_iosIcNS_11char_traitsIcEEE4failB7v160006Ev, symObjAddr: 0x2560, symBinAddr: 0x1000034B8, symSize: 0x28 }
  - { offsetInCU: 0x98E4, offset: 0x98E4, size: 0x8, addend: 0x0, symName: __ZNKSt3__18ios_base4failB7v160006Ev, symObjAddr: 0x2588, symBinAddr: 0x1000034E0, symSize: 0x28 }
  - { offsetInCU: 0x50DA, offset: 0xEA6B, size: 0x8, addend: 0x0, symName: __ZNSt3__119__debug_db_insert_cB7v160006INS_6vectorI4CardNS_9allocatorIS2_EEEEEEvPT_, symObjAddr: 0x828, symBinAddr: 0x100003C78, symSize: 0x10 }
  - { offsetInCU: 0x510B, offset: 0xEA9C, size: 0x8, addend: 0x0, symName: __ZNSt3__112__to_addressB7v160006I4CardEEPT_S3_, symObjAddr: 0xBF4, symBinAddr: 0x100004044, symSize: 0x14 }
  - { offsetInCU: 0x5140, offset: 0xEAD1, size: 0x8, addend: 0x0, symName: __ZNSt3__13maxB7v160006ImEERKT_S3_S3_, symObjAddr: 0xFF0, symBinAddr: 0x100004440, symSize: 0x2C }
  - { offsetInCU: 0x5183, offset: 0xEB14, size: 0x8, addend: 0x0, symName: __ZNSt3__13minB7v160006ImEERKT_S3_S3_, symObjAddr: 0x101C, symBinAddr: 0x10000446C, symSize: 0x2C }
  - { offsetInCU: 0x51C6, offset: 0xEB57, size: 0x8, addend: 0x0, symName: __ZNSt3__13minB7v160006ImNS_6__lessImmEEEERKT_S5_S5_T0_, symObjAddr: 0x10A8, symBinAddr: 0x1000044E4, symSize: 0x54 }
  - { offsetInCU: 0x525B, offset: 0xEBEC, size: 0x8, addend: 0x0, symName: __ZNSt3__120__throw_length_errorB7v160006EPKc, symObjAddr: 0x1184, symBinAddr: 0x1000045B8, symSize: 0x64 }
  - { offsetInCU: 0x5284, offset: 0xEC15, size: 0x8, addend: 0x0, symName: __ZNSt3__13maxB7v160006ImNS_6__lessImmEEEERKT_S5_S5_T0_, symObjAddr: 0x12C8, symBinAddr: 0x1000046FC, symSize: 0x54 }
  - { offsetInCU: 0x52DE, offset: 0xEC6F, size: 0x8, addend: 0x0, symName: __ZNSt3__119__allocate_at_leastB7v160006INS_9allocatorI4CardEEEENS_19__allocation_resultINS_16allocator_traitsIT_E7pointerEEERS6_m, symObjAddr: 0x142C, symBinAddr: 0x100004860, symSize: 0x40 }
  - { offsetInCU: 0x5321, offset: 0xECB2, size: 0x8, addend: 0x0, symName: __ZNSt3__117__libcpp_allocateB7v160006Emm, symObjAddr: 0x15B0, symBinAddr: 0x1000049E4, symSize: 0x60 }
  - { offsetInCU: 0x537B, offset: 0xED0C, size: 0x8, addend: 0x0, symName: __ZNSt3__124__is_overaligned_for_newB7v160006Em, symObjAddr: 0x1610, symBinAddr: 0x100004A44, symSize: 0x20 }
  - { offsetInCU: 0x53AA, offset: 0xED3B, size: 0x8, addend: 0x0, symName: __ZNSt3__121__libcpp_operator_newB7v160006IJmSt11align_val_tEEEPvDpT_, symObjAddr: 0x1630, symBinAddr: 0x100004A64, symSize: 0x2C }
  - { offsetInCU: 0x53FA, offset: 0xED8B, size: 0x8, addend: 0x0, symName: __ZNSt3__121__libcpp_operator_newB7v160006IJmEEEPvDpT_, symObjAddr: 0x165C, symBinAddr: 0x100004A90, symSize: 0x24 }
  - { offsetInCU: 0x5435, offset: 0xEDC6, size: 0x8, addend: 0x0, symName: __ZNSt3__142__uninitialized_allocator_move_if_noexceptB7v160006INS_9allocatorI4CardEENS_16reverse_iteratorIPS2_EES6_S2_vEET1_RT_T0_SA_S7_, symObjAddr: 0x179C, symBinAddr: 0x100004BD0, symSize: 0x78 }
  - { offsetInCU: 0x54B3, offset: 0xEE44, size: 0x8, addend: 0x0, symName: __ZNSt3__14swapB7v160006IP4CardEENS_9enable_ifIXaasr21is_move_constructibleIT_EE5valuesr18is_move_assignableIS4_EE5valueEvE4typeERS4_S7_, symObjAddr: 0x1860, symBinAddr: 0x100004C94, symSize: 0x3C }
  - { offsetInCU: 0x5504, offset: 0xEE95, size: 0x8, addend: 0x0, symName: __ZNSt3__125__debug_db_invalidate_allB7v160006INS_6vectorI4CardNS_9allocatorIS2_EEEEEEvPT_, symObjAddr: 0x1948, symBinAddr: 0x100004D7C, symSize: 0x10 }
  - { offsetInCU: 0x5535, offset: 0xEEC6, size: 0x8, addend: 0x0, symName: __ZNSt3__14moveB7v160006INS_16reverse_iteratorIP4CardEES4_EET0_T_S6_S5_, symObjAddr: 0x19A0, symBinAddr: 0x100004DD4, symSize: 0x78 }
  - { offsetInCU: 0x558F, offset: 0xEF20, size: 0x8, addend: 0x0, symName: __ZNSt3__16__moveB7v160006INS_17_ClassicAlgPolicyENS_16reverse_iteratorIP4CardEES5_S5_EENS_4pairIT0_T2_EES7_T1_S8_, symObjAddr: 0x1A18, symBinAddr: 0x100004E4C, symSize: 0x64 }
  - { offsetInCU: 0x55FB, offset: 0xEF8C, size: 0x8, addend: 0x0, symName: __ZNSt3__123__dispatch_copy_or_moveB7v160006INS_17_ClassicAlgPolicyENS_11__move_loopIS1_EENS_14__move_trivialENS_16reverse_iteratorIP4CardEES8_S8_EENS_4pairIT2_T4_EESA_T3_SB_, symObjAddr: 0x1A7C, symBinAddr: 0x100004EB0, symSize: 0x64 }
  - { offsetInCU: 0x5679, offset: 0xF00A, size: 0x8, addend: 0x0, symName: __ZNSt3__121__unwrap_and_dispatchB7v160006INS_10__overloadINS_11__move_loopINS_17_ClassicAlgPolicyEEENS_14__move_trivialEEENS_16reverse_iteratorIP4CardEESA_SA_Li0EEENS_4pairIT0_T2_EESC_T1_SD_, symObjAddr: 0x1AE0, symBinAddr: 0x100004F14, symSize: 0x12C }
  - { offsetInCU: 0x570A, offset: 0xF09B, size: 0x8, addend: 0x0, symName: __ZNSt3__114__unwrap_rangeB7v160006INS_16reverse_iteratorIP4CardEES4_EENS_4pairIT0_S6_EET_S8_, symObjAddr: 0x1C0C, symBinAddr: 0x100005040, symSize: 0x84 }
  - { offsetInCU: 0x5886, offset: 0xF217, size: 0x8, addend: 0x0, symName: __ZNSt3__113__unwrap_iterB7v160006INS_16reverse_iteratorIP4CardEENS_18__unwrap_iter_implIS4_Lb0EEELi0EEEDTclsrT0_8__unwrapclsr3stdE7declvalIT_EEEES8_, symObjAddr: 0x1D30, symBinAddr: 0x100005164, symSize: 0x44 }
  - { offsetInCU: 0x58CB, offset: 0xF25C, size: 0x8, addend: 0x0, symName: __ZNSt3__19make_pairB7v160006INS_16reverse_iteratorIP4CardEES4_EENS_4pairINS_18__unwrap_ref_decayIT_E4typeENS6_IT0_E4typeEEEOS7_OSA_, symObjAddr: 0x1D74, symBinAddr: 0x1000051A8, symSize: 0x38 }
  - { offsetInCU: 0x591A, offset: 0xF2AB, size: 0x8, addend: 0x0, symName: __ZNSt3__114__rewrap_rangeB7v160006INS_16reverse_iteratorIP4CardEES4_EET_S5_T0_, symObjAddr: 0x1DAC, symBinAddr: 0x1000051E0, symSize: 0x5C }
  - { offsetInCU: 0x5966, offset: 0xF2F7, size: 0x8, addend: 0x0, symName: __ZNSt3__113__rewrap_iterB7v160006INS_16reverse_iteratorIP4CardEES4_NS_18__unwrap_iter_implIS4_Lb0EEEEET_S7_T0_, symObjAddr: 0x1E08, symBinAddr: 0x10000523C, symSize: 0x74 }
  - { offsetInCU: 0x59BB, offset: 0xF34C, size: 0x8, addend: 0x0, symName: __ZNSt3__1neB7v160006IP4CardS2_EEbRKNS_16reverse_iteratorIT_EERKNS3_IT0_EE, symObjAddr: 0x1E7C, symBinAddr: 0x1000052B0, symSize: 0x48 }
  - { offsetInCU: 0x5ABA, offset: 0xF44B, size: 0x8, addend: 0x0, symName: __ZNSt3__119__libcpp_deallocateB7v160006EPvmm, symObjAddr: 0x2274, symBinAddr: 0x1000056A8, symSize: 0x60 }
  - { offsetInCU: 0x5B20, offset: 0xF4B1, size: 0x8, addend: 0x0, symName: __ZNSt3__127__do_deallocate_handle_sizeB7v160006IJSt11align_val_tEEEvPvmDpT_, symObjAddr: 0x22D4, symBinAddr: 0x100005708, symSize: 0x30 }
  - { offsetInCU: 0x5B76, offset: 0xF507, size: 0x8, addend: 0x0, symName: __ZNSt3__127__do_deallocate_handle_sizeB7v160006IJEEEvPvmDpT_, symObjAddr: 0x2304, symBinAddr: 0x100005738, symSize: 0x28 }
  - { offsetInCU: 0x5BB6, offset: 0xF547, size: 0x8, addend: 0x0, symName: __ZNSt3__124__libcpp_operator_deleteB7v160006IJPvSt11align_val_tEEEvDpT_, symObjAddr: 0x232C, symBinAddr: 0x100005760, symSize: 0x2C }
  - { offsetInCU: 0x5C03, offset: 0xF594, size: 0x8, addend: 0x0, symName: __ZNSt3__124__libcpp_operator_deleteB7v160006IJPvEEEvDpT_, symObjAddr: 0x2358, symBinAddr: 0x10000578C, symSize: 0x24 }
  - { offsetInCU: 0x5C5A, offset: 0xF5EB, size: 0x8, addend: 0x0, symName: __ZNSt3__1miB7v160006IPK4CardS3_EEDTmicldtfp_4baseEcldtfp0_4baseEERKNS_11__wrap_iterIT_EERKNS5_IT0_EE, symObjAddr: 0x255C, symBinAddr: 0x100005990, symSize: 0x48 }
  - { offsetInCU: 0x5CA6, offset: 0xF637, size: 0x8, addend: 0x0, symName: __ZNSt3__14moveB7v160006IP4CardS2_EET0_T_S4_S3_, symObjAddr: 0x2630, symBinAddr: 0x100005A64, symSize: 0x40 }
  - { offsetInCU: 0x5D00, offset: 0xF691, size: 0x8, addend: 0x0, symName: __ZNSt3__16__moveB7v160006INS_17_ClassicAlgPolicyEP4CardS3_S3_EENS_4pairIT0_T2_EES5_T1_S6_, symObjAddr: 0x28D4, symBinAddr: 0x100005D08, symSize: 0x44 }
  - { offsetInCU: 0x5D6C, offset: 0xF6FD, size: 0x8, addend: 0x0, symName: __ZNSt3__123__dispatch_copy_or_moveB7v160006INS_17_ClassicAlgPolicyENS_11__move_loopIS1_EENS_14__move_trivialEP4CardS6_S6_EENS_4pairIT2_T4_EES8_T3_S9_, symObjAddr: 0x2918, symBinAddr: 0x100005D4C, symSize: 0x44 }
  - { offsetInCU: 0x5DEA, offset: 0xF77B, size: 0x8, addend: 0x0, symName: __ZNSt3__121__unwrap_and_dispatchB7v160006INS_10__overloadINS_11__move_loopINS_17_ClassicAlgPolicyEEENS_14__move_trivialEEEP4CardS8_S8_Li0EEENS_4pairIT0_T2_EESA_T1_SB_, symObjAddr: 0x295C, symBinAddr: 0x100005D90, symSize: 0xB4 }
  - { offsetInCU: 0x5E79, offset: 0xF80A, size: 0x8, addend: 0x0, symName: __ZNSt3__114__unwrap_rangeB7v160006IP4CardS2_EENS_4pairIT0_S4_EET_S6_, symObjAddr: 0x2A10, symBinAddr: 0x100005E44, symSize: 0x60 }
  - { offsetInCU: 0x6011, offset: 0xF9A2, size: 0x8, addend: 0x0, symName: __ZNSt3__113__unwrap_iterB7v160006IP4CardNS_18__unwrap_iter_implIS2_Lb1EEELi0EEEDTclsrT0_8__unwrapclsr3stdE7declvalIT_EEEES6_, symObjAddr: 0x2AB8, symBinAddr: 0x100005EEC, symSize: 0x24 }
  - { offsetInCU: 0x6056, offset: 0xF9E7, size: 0x8, addend: 0x0, symName: __ZNSt3__19make_pairB7v160006IP4CardS2_EENS_4pairINS_18__unwrap_ref_decayIT_E4typeENS4_IT0_E4typeEEEOS5_OS8_, symObjAddr: 0x2ADC, symBinAddr: 0x100005F10, symSize: 0x38 }
  - { offsetInCU: 0x60A5, offset: 0xFA36, size: 0x8, addend: 0x0, symName: __ZNSt3__114__rewrap_rangeB7v160006IP4CardS2_EET_S3_T0_, symObjAddr: 0x2B14, symBinAddr: 0x100005F48, symSize: 0x2C }
  - { offsetInCU: 0x60F1, offset: 0xFA82, size: 0x8, addend: 0x0, symName: __ZNSt3__113__rewrap_iterB7v160006IP4CardS2_NS_18__unwrap_iter_implIS2_Lb1EEEEET_S5_T0_, symObjAddr: 0x2B40, symBinAddr: 0x100005F74, symSize: 0x3C }
  - { offsetInCU: 0x6146, offset: 0xFAD7, size: 0x8, addend: 0x0, symName: __ZNSt3__119__copy_trivial_implB7v160006I4CardS1_EENS_4pairIPT_PT0_EES4_S4_S6_, symObjAddr: 0x2B7C, symBinAddr: 0x100005FB0, symSize: 0x84 }
  - { offsetInCU: 0x61AE, offset: 0xFB3F, size: 0x8, addend: 0x0, symName: __ZNSt3__19make_pairB7v160006IRP4CardS2_EENS_4pairINS_18__unwrap_ref_decayIT_E4typeENS5_IT0_E4typeEEEOS6_OS9_, symObjAddr: 0x2C00, symBinAddr: 0x100006034, symSize: 0x38 }
  - { offsetInCU: 0x6250, offset: 0xFBE1, size: 0x8, addend: 0x0, symName: __ZNSt3__118__debug_db_erase_cB7v160006INS_6vectorI4CardNS_9allocatorIS2_EEEEEEvPT_, symObjAddr: 0x3028, symBinAddr: 0x10000645C, symSize: 0x10 }
  - { offsetInCU: 0x6DA8, offset: 0x10739, size: 0x8, addend: 0x0, symName: __ZSt28__throw_bad_array_new_lengthB7v160006v, symObjAddr: 0x157C, symBinAddr: 0x1000049B0, symSize: 0x34 }
  - { offsetInCU: 0x7176, offset: 0x10B07, size: 0x8, addend: 0x0, symName: __ZNSt3__16vectorI4CardNS_9allocatorIS1_EEE26__swap_out_circular_bufferERNS_14__split_bufferIS1_RS3_EE, symObjAddr: 0xDF0, symBinAddr: 0x100004240, symSize: 0x118 }
  - { offsetInCU: 0x9091, offset: 0x12A22, size: 0x8, addend: 0x0, symName: __ZlsRNSt3__113basic_ostreamIcNS_11char_traitsIcEEEERK6Player, symObjAddr: 0x0, symBinAddr: 0x100003508, symSize: 0x34 }
  - { offsetInCU: 0x90CB, offset: 0x12A5C, size: 0x8, addend: 0x0, symName: __Z14Player_factoryRKNSt3__112basic_stringIcNS_11char_traitsIcEENS_9allocatorIcEEEES7_, symObjAddr: 0x34, symBinAddr: 0x10000353C, symSize: 0x98 }
  - { offsetInCU: 0x9249, offset: 0x12BDA, size: 0x8, addend: 0x0, symName: __ZN12SimplePlayerC1ERKNSt3__112basic_stringIcNS0_11char_traitsIcEENS0_9allocatorIcEEEE, symObjAddr: 0x178, symBinAddr: 0x1000035D4, symSize: 0x34 }
  - { offsetInCU: 0x927F, offset: 0x12C10, size: 0x8, addend: 0x0, symName: __ZN12SimplePlayerC2ERKNSt3__112basic_stringIcNS0_11char_traitsIcEENS0_9allocatorIcEEEE, symObjAddr: 0x1AC, symBinAddr: 0x100003608, symSize: 0x60 }
  - { offsetInCU: 0x92B5, offset: 0x12C46, size: 0x8, addend: 0x0, symName: __ZN6PlayerC2Ev, symObjAddr: 0x20C, symBinAddr: 0x100003668, symSize: 0x24 }
  - { offsetInCU: 0x92DF, offset: 0x12C70, size: 0x8, addend: 0x0, symName: __ZNSt3__16vectorI4CardNS_9allocatorIS1_EEEC1B7v160006Ev, symObjAddr: 0x230, symBinAddr: 0x10000368C, symSize: 0x2C }
  - { offsetInCU: 0x9307, offset: 0x12C98, size: 0x8, addend: 0x0, symName: __ZNK12SimplePlayer8get_nameEv, symObjAddr: 0x25C, symBinAddr: 0x1000036B8, symSize: 0x18 }
  - { offsetInCU: 0x932C, offset: 0x12CBD, size: 0x8, addend: 0x0, symName: __ZN12SimplePlayer8add_cardERK4Card, symObjAddr: 0x274, symBinAddr: 0x1000036D0, symSize: 0x74 }
  - { offsetInCU: 0x935E, offset: 0x12CEF, size: 0x8, addend: 0x0, symName: __ZNK12SimplePlayer10make_trumpERK4CardbiR4Suit, symObjAddr: 0x2E8, symBinAddr: 0x100003744, symSize: 0x260 }
  - { offsetInCU: 0x93F2, offset: 0x12D83, size: 0x8, addend: 0x0, symName: __ZN12SimplePlayer15add_and_discardERK4Card, symObjAddr: 0x548, symBinAddr: 0x1000039A4, symSize: 0x168 }
  - { offsetInCU: 0x945C, offset: 0x12DED, size: 0x8, addend: 0x0, symName: __ZN12SimplePlayer9lead_cardE4Suit, symObjAddr: 0x6B0, symBinAddr: 0x100003B0C, symSize: 0x2C }
  - { offsetInCU: 0x949C, offset: 0x12E2D, size: 0x8, addend: 0x0, symName: __ZN12SimplePlayer9play_cardERK4Card4Suit, symObjAddr: 0x6DC, symBinAddr: 0x100003B38, symSize: 0x30 }
  - { offsetInCU: 0x94EA, offset: 0x12E7B, size: 0x8, addend: 0x0, symName: __ZN12SimplePlayerD1Ev, symObjAddr: 0x70C, symBinAddr: 0x100003B68, symSize: 0x2C }
  - { offsetInCU: 0x9515, offset: 0x12EA6, size: 0x8, addend: 0x0, symName: __ZN12SimplePlayerD0Ev, symObjAddr: 0x738, symBinAddr: 0x100003B94, symSize: 0x30 }
  - { offsetInCU: 0x9540, offset: 0x12ED1, size: 0x8, addend: 0x0, symName: __ZN6PlayerD1Ev, symObjAddr: 0x768, symBinAddr: 0x100003BC4, symSize: 0x14 }
  - { offsetInCU: 0x9569, offset: 0x12EFA, size: 0x8, addend: 0x0, symName: __ZN6PlayerD0Ev, symObjAddr: 0x77C, symBinAddr: 0x100003BD8, symSize: 0xC }
  - { offsetInCU: 0x9592, offset: 0x12F23, size: 0x8, addend: 0x0, symName: __ZNSt3__16vectorI4CardNS_9allocatorIS1_EEEC2B7v160006Ev, symObjAddr: 0x788, symBinAddr: 0x100003BE4, symSize: 0x58 }
  - { offsetInCU: 0x95C4, offset: 0x12F55, size: 0x8, addend: 0x0, symName: __ZNSt3__117__compressed_pairIP4CardNS_9allocatorIS1_EEEC1B7v160006IDnNS_18__default_init_tagEEEOT_OT0_, symObjAddr: 0x7E0, symBinAddr: 0x100003C3C, symSize: 0x3C }
  - { offsetInCU: 0x961A, offset: 0x12FAB, size: 0x8, addend: 0x0, symName: __ZNSt3__117__compressed_pairIP4CardNS_9allocatorIS1_EEEC2B7v160006IDnNS_18__default_init_tagEEEOT_OT0_, symObjAddr: 0x838, symBinAddr: 0x100003C88, symSize: 0x40 }
  - { offsetInCU: 0x9670, offset: 0x13001, size: 0x8, addend: 0x0, symName: __ZNSt3__122__compressed_pair_elemIP4CardLi0ELb0EEC2B7v160006IDnvEEOT_, symObjAddr: 0x878, symBinAddr: 0x100003CC8, symSize: 0x1C }
  - { offsetInCU: 0x96B1, offset: 0x13042, size: 0x8, addend: 0x0, symName: __ZNSt3__122__compressed_pair_elemINS_9allocatorI4CardEELi1ELb1EEC2B7v160006ENS_18__default_init_tagE, symObjAddr: 0x894, symBinAddr: 0x100003CE4, symSize: 0x2C }
  - { offsetInCU: 0x96E4, offset: 0x13075, size: 0x8, addend: 0x0, symName: __ZNSt3__19allocatorI4CardEC2B7v160006Ev, symObjAddr: 0x8C0, symBinAddr: 0x100003D10, symSize: 0x2C }
  - { offsetInCU: 0x970C, offset: 0x1309D, size: 0x8, addend: 0x0, symName: __ZNSt3__116__non_trivial_ifILb1ENS_9allocatorI4CardEEEC2B7v160006Ev, symObjAddr: 0x8EC, symBinAddr: 0x100003D3C, symSize: 0x14 }
  - { offsetInCU: 0x9735, offset: 0x130C6, size: 0x8, addend: 0x0, symName: __ZNKSt3__16vectorI4CardNS_9allocatorIS1_EEE4sizeB7v160006Ev, symObjAddr: 0x900, symBinAddr: 0x100003D50, symSize: 0x28 }
  - { offsetInCU: 0x9759, offset: 0x130EA, size: 0x8, addend: 0x0, symName: __ZNSt3__16vectorI4CardNS_9allocatorIS1_EEE9push_backB7v160006ERKS1_, symObjAddr: 0x928, symBinAddr: 0x100003D78, symSize: 0x6C }
  - { offsetInCU: 0x9790, offset: 0x13121, size: 0x8, addend: 0x0, symName: __ZNSt3__16vectorI4CardNS_9allocatorIS1_EEE9__end_capB7v160006Ev, symObjAddr: 0x994, symBinAddr: 0x100003DE4, symSize: 0x28 }
  - { offsetInCU: 0x97B4, offset: 0x13145, size: 0x8, addend: 0x0, symName: __ZNSt3__16vectorI4CardNS_9allocatorIS1_EEE22__construct_one_at_endB7v160006IJRKS1_EEEvDpOT_, symObjAddr: 0x9BC, symBinAddr: 0x100003E0C, symSize: 0x90 }
  - { offsetInCU: 0x9802, offset: 0x13193, size: 0x8, addend: 0x0, symName: __ZNSt3__16vectorI4CardNS_9allocatorIS1_EEE21__push_back_slow_pathIRKS1_EEvOT_, symObjAddr: 0xA4C, symBinAddr: 0x100003E9C, symSize: 0xD8 }
  - { offsetInCU: 0x9860, offset: 0x131F1, size: 0x8, addend: 0x0, symName: __ZNSt3__117__compressed_pairIP4CardNS_9allocatorIS1_EEE5firstB7v160006Ev, symObjAddr: 0xB24, symBinAddr: 0x100003F74, symSize: 0x24 }
  - { offsetInCU: 0x9884, offset: 0x13215, size: 0x8, addend: 0x0, symName: __ZNSt3__122__compressed_pair_elemIP4CardLi0ELb0EE5__getB7v160006Ev, symObjAddr: 0xB48, symBinAddr: 0x100003F98, symSize: 0x14 }
  - { offsetInCU: 0x98C2, offset: 0x13253, size: 0x8, addend: 0x0, symName: __ZNSt3__16vectorI4CardNS_9allocatorIS1_EEE21_ConstructTransactionC1B7v160006ERS4_m, symObjAddr: 0xB5C, symBinAddr: 0x100003FAC, symSize: 0x3C }
  - { offsetInCU: 0x9908, offset: 0x13299, size: 0x8, addend: 0x0, symName: __ZNSt3__116allocator_traitsINS_9allocatorI4CardEEE9constructB7v160006IS2_JRKS2_EvEEvRS3_PT_DpOT0_, symObjAddr: 0xB98, symBinAddr: 0x100003FE8, symSize: 0x34 }
  - { offsetInCU: 0x9961, offset: 0x132F2, size: 0x8, addend: 0x0, symName: __ZNSt3__16vectorI4CardNS_9allocatorIS1_EEE7__allocB7v160006Ev, symObjAddr: 0xBCC, symBinAddr: 0x10000401C, symSize: 0x28 }
  - { offsetInCU: 0x9985, offset: 0x13316, size: 0x8, addend: 0x0, symName: __ZNSt3__16vectorI4CardNS_9allocatorIS1_EEE21_ConstructTransactionD1B7v160006Ev, symObjAddr: 0xC08, symBinAddr: 0x100004058, symSize: 0x2C }
  - { offsetInCU: 0x99AD, offset: 0x1333E, size: 0x8, addend: 0x0, symName: __ZNSt3__16vectorI4CardNS_9allocatorIS1_EEE21_ConstructTransactionC2B7v160006ERS4_m, symObjAddr: 0xC34, symBinAddr: 0x100004084, symSize: 0x44 }
  - { offsetInCU: 0x99F4, offset: 0x13385, size: 0x8, addend: 0x0, symName: __ZNSt3__19allocatorI4CardE9constructB7v160006IS1_JRKS1_EEEvPT_DpOT0_, symObjAddr: 0xC78, symBinAddr: 0x1000040C8, symSize: 0x28 }
  - { offsetInCU: 0x9A4B, offset: 0x133DC, size: 0x8, addend: 0x0, symName: __ZNSt3__117__compressed_pairIP4CardNS_9allocatorIS1_EEE6secondB7v160006Ev, symObjAddr: 0xCA0, symBinAddr: 0x1000040F0, symSize: 0x24 }
  - { offsetInCU: 0x9A6F, offset: 0x13400, size: 0x8, addend: 0x0, symName: __ZNSt3__122__compressed_pair_elemINS_9allocatorI4CardEELi1ELb1EE5__getB7v160006Ev, symObjAddr: 0xCC4, symBinAddr: 0x100004114, symSize: 0x14 }
  - { offsetInCU: 0x9A94, offset: 0x13425, size: 0x8, addend: 0x0, symName: __ZNSt3__16vectorI4CardNS_9allocatorIS1_EEE21_ConstructTransactionD2B7v160006Ev, symObjAddr: 0xCD8, symBinAddr: 0x100004128, symSize: 0x20 }
  - { offsetInCU: 0x9ABC, offset: 0x1344D, size: 0x8, addend: 0x0, symName: __ZNKSt3__16vectorI4CardNS_9allocatorIS1_EEE11__recommendB7v160006Em, symObjAddr: 0xCF8, symBinAddr: 0x100004148, symSize: 0xB4 }
  - { offsetInCU: 0x9B11, offset: 0x134A2, size: 0x8, addend: 0x0, symName: __ZNSt3__114__split_bufferI4CardRNS_9allocatorIS1_EEEC1EmmS4_, symObjAddr: 0xDAC, symBinAddr: 0x1000041FC, symSize: 0x44 }
  - { offsetInCU: 0x9B66, offset: 0x134F7, size: 0x8, addend: 0x0, symName: __ZNSt3__114__split_bufferI4CardRNS_9allocatorIS1_EEED1Ev, symObjAddr: 0xF08, symBinAddr: 0x100004358, symSize: 0x2C }
  - { offsetInCU: 0x9B90, offset: 0x13521, size: 0x8, addend: 0x0, symName: __ZNKSt3__16vectorI4CardNS_9allocatorIS1_EEE8max_sizeEv, symObjAddr: 0xF34, symBinAddr: 0x100004384, symSize: 0x60 }
  - { offsetInCU: 0x9BB8, offset: 0x13549, size: 0x8, addend: 0x0, symName: __ZNKSt3__16vectorI4CardNS_9allocatorIS1_EEE20__throw_length_errorB7v160006Ev, symObjAddr: 0xF94, symBinAddr: 0x1000043E4, symSize: 0x1C }
  - { offsetInCU: 0x9BDC, offset: 0x1356D, size: 0x8, addend: 0x0, symName: __ZNKSt3__16vectorI4CardNS_9allocatorIS1_EEE8capacityB7v160006Ev, symObjAddr: 0xFB0, symBinAddr: 0x100004400, symSize: 0x40 }
  - { offsetInCU: 0x9C0A, offset: 0x1359B, size: 0x8, addend: 0x0, symName: __ZNSt3__116allocator_traitsINS_9allocatorI4CardEEE8max_sizeB7v160006IS3_vEEmRKS3_, symObjAddr: 0x1048, symBinAddr: 0x100004498, symSize: 0x24 }
  - { offsetInCU: 0x9C38, offset: 0x135C9, size: 0x8, addend: 0x0, symName: __ZNKSt3__16vectorI4CardNS_9allocatorIS1_EEE7__allocB7v160006Ev, symObjAddr: 0x106C, symBinAddr: 0x1000044BC, symSize: 0x28 }
  - { offsetInCU: 0x9C70, offset: 0x13601, size: 0x8, addend: 0x0, symName: __ZNKSt3__16__lessImmEclB7v160006ERKmS3_, symObjAddr: 0x10FC, symBinAddr: 0x100004538, symSize: 0x34 }
  - { offsetInCU: 0x9CB1, offset: 0x13642, size: 0x8, addend: 0x0, symName: __ZNKSt3__19allocatorI4CardE8max_sizeB7v160006Ev, symObjAddr: 0x1130, symBinAddr: 0x10000456C, symSize: 0x14 }
  - { offsetInCU: 0x9CD6, offset: 0x13667, size: 0x8, addend: 0x0, symName: __ZNKSt3__117__compressed_pairIP4CardNS_9allocatorIS1_EEE6secondB7v160006Ev, symObjAddr: 0x1144, symBinAddr: 0x100004580, symSize: 0x24 }
  - { offsetInCU: 0x9CFA, offset: 0x1368B, size: 0x8, addend: 0x0, symName: __ZNKSt3__122__compressed_pair_elemINS_9allocatorI4CardEELi1ELb1EE5__getB7v160006Ev, symObjAddr: 0x1168, symBinAddr: 0x1000045A4, symSize: 0x14 }
  - { offsetInCU: 0x9D1F, offset: 0x136B0, size: 0x8, addend: 0x0, symName: __ZNSt12length_errorC1B7v160006EPKc, symObjAddr: 0x11E8, symBinAddr: 0x10000461C, symSize: 0x34 }
  - { offsetInCU: 0x9D55, offset: 0x136E6, size: 0x8, addend: 0x0, symName: __ZNSt12length_errorC2B7v160006EPKc, symObjAddr: 0x121C, symBinAddr: 0x100004650, symSize: 0x4C }
  - { offsetInCU: 0x9D8B, offset: 0x1371C, size: 0x8, addend: 0x0, symName: __ZNKSt3__16vectorI4CardNS_9allocatorIS1_EEE9__end_capB7v160006Ev, symObjAddr: 0x1268, symBinAddr: 0x10000469C, symSize: 0x28 }
  - { offsetInCU: 0x9DAF, offset: 0x13740, size: 0x8, addend: 0x0, symName: __ZNKSt3__117__compressed_pairIP4CardNS_9allocatorIS1_EEE5firstB7v160006Ev, symObjAddr: 0x1290, symBinAddr: 0x1000046C4, symSize: 0x24 }
  - { offsetInCU: 0x9DD3, offset: 0x13764, size: 0x8, addend: 0x0, symName: __ZNKSt3__122__compressed_pair_elemIP4CardLi0ELb0EE5__getB7v160006Ev, symObjAddr: 0x12B4, symBinAddr: 0x1000046E8, symSize: 0x14 }
  - { offsetInCU: 0x9DF8, offset: 0x13789, size: 0x8, addend: 0x0, symName: __ZNSt3__114__split_bufferI4CardRNS_9allocatorIS1_EEEC2EmmS4_, symObjAddr: 0x131C, symBinAddr: 0x100004750, symSize: 0xD4 }
  - { offsetInCU: 0x9E6A, offset: 0x137FB, size: 0x8, addend: 0x0, symName: __ZNSt3__117__compressed_pairIP4CardRNS_9allocatorIS1_EEEC1B7v160006IDnS5_EEOT_OT0_, symObjAddr: 0x13F0, symBinAddr: 0x100004824, symSize: 0x3C }
  - { offsetInCU: 0x9EC0, offset: 0x13851, size: 0x8, addend: 0x0, symName: __ZNSt3__114__split_bufferI4CardRNS_9allocatorIS1_EEE7__allocB7v160006Ev, symObjAddr: 0x146C, symBinAddr: 0x1000048A0, symSize: 0x28 }
  - { offsetInCU: 0x9EE4, offset: 0x13875, size: 0x8, addend: 0x0, symName: __ZNSt3__114__split_bufferI4CardRNS_9allocatorIS1_EEE9__end_capB7v160006Ev, symObjAddr: 0x1494, symBinAddr: 0x1000048C8, symSize: 0x28 }
  - { offsetInCU: 0x9F08, offset: 0x13899, size: 0x8, addend: 0x0, symName: __ZNSt3__117__compressed_pairIP4CardRNS_9allocatorIS1_EEEC2B7v160006IDnS5_EEOT_OT0_, symObjAddr: 0x14BC, symBinAddr: 0x1000048F0, symSize: 0x48 }
  - { offsetInCU: 0x9F5E, offset: 0x138EF, size: 0x8, addend: 0x0, symName: __ZNSt3__122__compressed_pair_elemIRNS_9allocatorI4CardEELi1ELb0EEC2B7v160006IS4_vEEOT_, symObjAddr: 0x1504, symBinAddr: 0x100004938, symSize: 0x20 }
  - { offsetInCU: 0x9F9F, offset: 0x13930, size: 0x8, addend: 0x0, symName: __ZNSt3__19allocatorI4CardE8allocateB7v160006Em, symObjAddr: 0x1524, symBinAddr: 0x100004958, symSize: 0x58 }
  - { offsetInCU: 0x9FD1, offset: 0x13962, size: 0x8, addend: 0x0, symName: __ZNSt3__117__compressed_pairIP4CardRNS_9allocatorIS1_EEE6secondB7v160006Ev, symObjAddr: 0x1680, symBinAddr: 0x100004AB4, symSize: 0x28 }
  - { offsetInCU: 0x9FF5, offset: 0x13986, size: 0x8, addend: 0x0, symName: __ZNSt3__122__compressed_pair_elemIRNS_9allocatorI4CardEELi1ELb0EE5__getB7v160006Ev, symObjAddr: 0x16A8, symBinAddr: 0x100004ADC, symSize: 0x18 }
  - { offsetInCU: 0xA01A, offset: 0x139AB, size: 0x8, addend: 0x0, symName: __ZNSt3__117__compressed_pairIP4CardRNS_9allocatorIS1_EEE5firstB7v160006Ev, symObjAddr: 0x16C0, symBinAddr: 0x100004AF4, symSize: 0x24 }
  - { offsetInCU: 0xA03E, offset: 0x139CF, size: 0x8, addend: 0x0, symName: __ZNKSt3__16vectorI4CardNS_9allocatorIS1_EEE17__annotate_deleteB7v160006Ev, symObjAddr: 0x16E4, symBinAddr: 0x100004B18, symSize: 0xB8 }
  - { offsetInCU: 0xA062, offset: 0x139F3, size: 0x8, addend: 0x0, symName: __ZNSt3__116reverse_iteratorIP4CardEC1B7v160006ES2_, symObjAddr: 0x1814, symBinAddr: 0x100004C48, symSize: 0x34 }
  - { offsetInCU: 0xA098, offset: 0x13A29, size: 0x8, addend: 0x0, symName: __ZNKSt3__116reverse_iteratorIP4CardE4baseB7v160006Ev, symObjAddr: 0x1848, symBinAddr: 0x100004C7C, symSize: 0x18 }
  - { offsetInCU: 0xA0BD, offset: 0x13A4E, size: 0x8, addend: 0x0, symName: __ZNKSt3__16vectorI4CardNS_9allocatorIS1_EEE14__annotate_newB7v160006Em, symObjAddr: 0x189C, symBinAddr: 0x100004CD0, symSize: 0xAC }
  - { offsetInCU: 0xA0F0, offset: 0x13A81, size: 0x8, addend: 0x0, symName: __ZNKSt3__16vectorI4CardNS_9allocatorIS1_EEE31__annotate_contiguous_containerB7v160006EPKvS6_S6_S6_, symObjAddr: 0x1958, symBinAddr: 0x100004D8C, symSize: 0x20 }
  - { offsetInCU: 0xA145, offset: 0x13AD6, size: 0x8, addend: 0x0, symName: __ZNKSt3__16vectorI4CardNS_9allocatorIS1_EEE4dataB7v160006Ev, symObjAddr: 0x1978, symBinAddr: 0x100004DAC, symSize: 0x28 }
  - { offsetInCU: 0xA18C, offset: 0x13B1D, size: 0x8, addend: 0x0, symName: __ZNKSt3__111__move_loopINS_17_ClassicAlgPolicyEEclB7v160006INS_16reverse_iteratorIP4CardEES7_S7_EENS_4pairIT_T1_EES9_T0_SA_, symObjAddr: 0x1C90, symBinAddr: 0x1000050C4, symSize: 0xA0 }
  - { offsetInCU: 0xA1FA, offset: 0x13B8B, size: 0x8, addend: 0x0, symName: __ZNSt3__18_IterOpsINS_17_ClassicAlgPolicyEE11__iter_moveB7v160006IRNS_16reverse_iteratorIP4CardEEEENS_9enable_ifIXsr12is_referenceIDTdeclsr3stdE7declvalIRT_EEEEE5valueEDTclsr3stdE4movedeclsr3stdE7declvalISB_EEEEE4typeEOSA_, symObjAddr: 0x1EC4, symBinAddr: 0x1000052F8, symSize: 0x28 }
  - { offsetInCU: 0xA226, offset: 0x13BB7, size: 0x8, addend: 0x0, symName: __ZNKSt3__116reverse_iteratorIP4CardEdeB7v160006Ev, symObjAddr: 0x1EEC, symBinAddr: 0x100005320, symSize: 0x28 }
  - { offsetInCU: 0xA259, offset: 0x13BEA, size: 0x8, addend: 0x0, symName: __ZNSt3__116reverse_iteratorIP4CardEppB7v160006Ev, symObjAddr: 0x1F14, symBinAddr: 0x100005348, symSize: 0x20 }
  - { offsetInCU: 0xA27E, offset: 0x13C0F, size: 0x8, addend: 0x0, symName: __ZNSt3__18_IterOpsINS_17_ClassicAlgPolicyEE25__validate_iter_referenceB7v160006IRNS_16reverse_iteratorIP4CardEEEEvv, symObjAddr: 0x1F34, symBinAddr: 0x100005368, symSize: 0x4 }
  - { offsetInCU: 0xA29C, offset: 0x13C2D, size: 0x8, addend: 0x0, symName: __ZNSt3__118__unwrap_iter_implINS_16reverse_iteratorIP4CardEELb0EE8__unwrapB7v160006ES4_, symObjAddr: 0x1F38, symBinAddr: 0x10000536C, symSize: 0x24 }
  - { offsetInCU: 0xA2C4, offset: 0x13C55, size: 0x8, addend: 0x0, symName: __ZNSt3__14pairINS_16reverse_iteratorIP4CardEES4_EC1B7v160006IS4_S4_LPv0EEEOT_OT0_, symObjAddr: 0x1F5C, symBinAddr: 0x100005390, symSize: 0x3C }
  - { offsetInCU: 0xA321, offset: 0x13CB2, size: 0x8, addend: 0x0, symName: __ZNSt3__14pairINS_16reverse_iteratorIP4CardEES4_EC2B7v160006IS4_S4_LPv0EEEOT_OT0_, symObjAddr: 0x1F98, symBinAddr: 0x1000053CC, symSize: 0x34 }
  - { offsetInCU: 0xA37F, offset: 0x13D10, size: 0x8, addend: 0x0, symName: __ZNSt3__118__unwrap_iter_implINS_16reverse_iteratorIP4CardEELb0EE8__rewrapB7v160006ES4_S4_, symObjAddr: 0x1FCC, symBinAddr: 0x100005400, symSize: 0x2C }
  - { offsetInCU: 0xA3AD, offset: 0x13D3E, size: 0x8, addend: 0x0, symName: __ZNSt3__116reverse_iteratorIP4CardEC2B7v160006ES2_, symObjAddr: 0x1FF8, symBinAddr: 0x10000542C, symSize: 0x28 }
  - { offsetInCU: 0xA3E4, offset: 0x13D75, size: 0x8, addend: 0x0, symName: __ZNSt3__114__split_bufferI4CardRNS_9allocatorIS1_EEED2Ev, symObjAddr: 0x2020, symBinAddr: 0x100005454, symSize: 0x8C }
  - { offsetInCU: 0xA40F, offset: 0x13DA0, size: 0x8, addend: 0x0, symName: __ZNSt3__114__split_bufferI4CardRNS_9allocatorIS1_EEE5clearB7v160006Ev, symObjAddr: 0x20AC, symBinAddr: 0x1000054E0, symSize: 0x28 }
  - { offsetInCU: 0xA433, offset: 0x13DC4, size: 0x8, addend: 0x0, symName: __ZNSt3__116allocator_traitsINS_9allocatorI4CardEEE10deallocateB7v160006ERS3_PS2_m, symObjAddr: 0x20D4, symBinAddr: 0x100005508, symSize: 0x34 }
  - { offsetInCU: 0xA475, offset: 0x13E06, size: 0x8, addend: 0x0, symName: __ZNKSt3__114__split_bufferI4CardRNS_9allocatorIS1_EEE8capacityB7v160006Ev, symObjAddr: 0x2108, symBinAddr: 0x10000553C, symSize: 0x40 }
  - { offsetInCU: 0xA499, offset: 0x13E2A, size: 0x8, addend: 0x0, symName: __ZNSt3__114__split_bufferI4CardRNS_9allocatorIS1_EEE17__destruct_at_endB7v160006EPS1_, symObjAddr: 0x2148, symBinAddr: 0x10000557C, symSize: 0x2C }
  - { offsetInCU: 0xA4CA, offset: 0x13E5B, size: 0x8, addend: 0x0, symName: __ZNSt3__114__split_bufferI4CardRNS_9allocatorIS1_EEE17__destruct_at_endB7v160006EPS1_NS_17integral_constantIbLb0EEE, symObjAddr: 0x2174, symBinAddr: 0x1000055A8, symSize: 0x80 }
  - { offsetInCU: 0xA50B, offset: 0x13E9C, size: 0x8, addend: 0x0, symName: __ZNSt3__116allocator_traitsINS_9allocatorI4CardEEE7destroyB7v160006IS2_vEEvRS3_PT_, symObjAddr: 0x21F4, symBinAddr: 0x100005628, symSize: 0x2C }
  - { offsetInCU: 0xA548, offset: 0x13ED9, size: 0x8, addend: 0x0, symName: __ZNSt3__19allocatorI4CardE7destroyB7v160006EPS1_, symObjAddr: 0x2220, symBinAddr: 0x100005654, symSize: 0x14 }
  - { offsetInCU: 0xA57B, offset: 0x13F0C, size: 0x8, addend: 0x0, symName: __ZNSt3__19allocatorI4CardE10deallocateB7v160006EPS1_m, symObjAddr: 0x2234, symBinAddr: 0x100005668, symSize: 0x40 }
  - { offsetInCU: 0xA5BB, offset: 0x13F4C, size: 0x8, addend: 0x0, symName: __ZNKSt3__114__split_bufferI4CardRNS_9allocatorIS1_EEE9__end_capB7v160006Ev, symObjAddr: 0x237C, symBinAddr: 0x1000057B0, symSize: 0x28 }
  - { offsetInCU: 0xA5DF, offset: 0x13F70, size: 0x8, addend: 0x0, symName: __ZNKSt3__117__compressed_pairIP4CardRNS_9allocatorIS1_EEE5firstB7v160006Ev, symObjAddr: 0x23A4, symBinAddr: 0x1000057D8, symSize: 0x24 }
  - { offsetInCU: 0xA603, offset: 0x13F94, size: 0x8, addend: 0x0, symName: __ZNKSt3__16vectorI4CardNS_9allocatorIS1_EEEixB7v160006Em, symObjAddr: 0x23C8, symBinAddr: 0x1000057FC, symSize: 0x24 }
  - { offsetInCU: 0xA639, offset: 0x13FCA, size: 0x8, addend: 0x0, symName: __ZNSt3__16vectorI4CardNS_9allocatorIS1_EEEixB7v160006Em, symObjAddr: 0x23EC, symBinAddr: 0x100005820, symSize: 0x24 }
  - { offsetInCU: 0xA66E, offset: 0x13FFF, size: 0x8, addend: 0x0, symName: __ZNSt3__16vectorI4CardNS_9allocatorIS1_EEE5eraseB7v160006ENS_11__wrap_iterIPKS1_EE, symObjAddr: 0x2410, symBinAddr: 0x100005844, symSize: 0xA4 }
  - { offsetInCU: 0xA6C2, offset: 0x14053, size: 0x8, addend: 0x0, symName: __ZNSt3__16vectorI4CardNS_9allocatorIS1_EEE5beginB7v160006Ev, symObjAddr: 0x24B4, symBinAddr: 0x1000058E8, symSize: 0x30 }
  - { offsetInCU: 0xA6EA, offset: 0x1407B, size: 0x8, addend: 0x0, symName: __ZNKSt3__111__wrap_iterIP4CardEplB7v160006El, symObjAddr: 0x24E4, symBinAddr: 0x100005918, symSize: 0x3C }
  - { offsetInCU: 0xA734, offset: 0x140C5, size: 0x8, addend: 0x0, symName: __ZNSt3__111__wrap_iterIPK4CardEC1B7v160006IPS1_EERKNS0_IT_EEPNS_9enable_ifIXsr14is_convertibleIS7_S3_EE5valueEvE4typeE, symObjAddr: 0x2520, symBinAddr: 0x100005954, symSize: 0x3C }
  - { offsetInCU: 0xA77E, offset: 0x1410F, size: 0x8, addend: 0x0, symName: __ZNKSt3__16vectorI4CardNS_9allocatorIS1_EEE6cbeginB7v160006Ev, symObjAddr: 0x25A4, symBinAddr: 0x1000059D8, symSize: 0x2C }
  - { offsetInCU: 0xA7A2, offset: 0x14133, size: 0x8, addend: 0x0, symName: __ZNSt3__16vectorI4CardNS_9allocatorIS1_EEE17__destruct_at_endB7v160006EPS1_, symObjAddr: 0x25D0, symBinAddr: 0x100005A04, symSize: 0x60 }
  - { offsetInCU: 0xA7E4, offset: 0x14175, size: 0x8, addend: 0x0, symName: __ZNSt3__16vectorI4CardNS_9allocatorIS1_EEE27__invalidate_iterators_pastB7v160006EPS1_, symObjAddr: 0x2670, symBinAddr: 0x100005AA4, symSize: 0x14 }
  - { offsetInCU: 0xA81A, offset: 0x141AB, size: 0x8, addend: 0x0, symName: __ZNSt3__16vectorI4CardNS_9allocatorIS1_EEE11__make_iterB7v160006EPS1_, symObjAddr: 0x2684, symBinAddr: 0x100005AB8, symSize: 0x34 }
  - { offsetInCU: 0xA84D, offset: 0x141DE, size: 0x8, addend: 0x0, symName: __ZNKSt3__111__wrap_iterIPK4CardE4baseB7v160006Ev, symObjAddr: 0x26B8, symBinAddr: 0x100005AEC, symSize: 0x18 }
  - { offsetInCU: 0xA871, offset: 0x14202, size: 0x8, addend: 0x0, symName: __ZNKSt3__16vectorI4CardNS_9allocatorIS1_EEE5beginB7v160006Ev, symObjAddr: 0x26D0, symBinAddr: 0x100005B04, symSize: 0x30 }
  - { offsetInCU: 0xA899, offset: 0x1422A, size: 0x8, addend: 0x0, symName: __ZNKSt3__16vectorI4CardNS_9allocatorIS1_EEE11__make_iterB7v160006EPKS1_, symObjAddr: 0x2700, symBinAddr: 0x100005B34, symSize: 0x34 }
  - { offsetInCU: 0xA8CC, offset: 0x1425D, size: 0x8, addend: 0x0, symName: __ZNSt3__111__wrap_iterIPK4CardEC1B7v160006EPKvS3_, symObjAddr: 0x2734, symBinAddr: 0x100005B68, symSize: 0x3C }
  - { offsetInCU: 0xA910, offset: 0x142A1, size: 0x8, addend: 0x0, symName: __ZNSt3__111__wrap_iterIPK4CardEC2B7v160006EPKvS3_, symObjAddr: 0x2770, symBinAddr: 0x100005BA4, symSize: 0x24 }
  - { offsetInCU: 0xA955, offset: 0x142E6, size: 0x8, addend: 0x0, symName: __ZNSt3__16vectorI4CardNS_9allocatorIS1_EEE22__base_destruct_at_endB7v160006EPS1_, symObjAddr: 0x2794, symBinAddr: 0x100005BC8, symSize: 0x8C }
  - { offsetInCU: 0xA997, offset: 0x14328, size: 0x8, addend: 0x0, symName: __ZNKSt3__16vectorI4CardNS_9allocatorIS1_EEE17__annotate_shrinkB7v160006Em, symObjAddr: 0x2820, symBinAddr: 0x100005C54, symSize: 0xB4 }
  - { offsetInCU: 0xA9ED, offset: 0x1437E, size: 0x8, addend: 0x0, symName: __ZNKSt3__114__move_trivialclB7v160006I4CardS2_Li0EEENS_4pairIPT_PT0_EES5_S5_S7_, symObjAddr: 0x2A70, symBinAddr: 0x100005EA4, symSize: 0x48 }
  - { offsetInCU: 0xAA59, offset: 0x143EA, size: 0x8, addend: 0x0, symName: __ZNSt3__14pairIP4CardS2_EC1B7v160006IRS2_S2_LPv0EEEOT_OT0_, symObjAddr: 0x2C38, symBinAddr: 0x10000606C, symSize: 0x3C }
  - { offsetInCU: 0xAAB6, offset: 0x14447, size: 0x8, addend: 0x0, symName: __ZNSt3__14pairIP4CardS2_EC2B7v160006IRS2_S2_LPv0EEEOT_OT0_, symObjAddr: 0x2C74, symBinAddr: 0x1000060A8, symSize: 0x34 }
  - { offsetInCU: 0xAB14, offset: 0x144A5, size: 0x8, addend: 0x0, symName: __ZNSt3__118__unwrap_iter_implIP4CardLb1EE8__unwrapB7v160006ES2_, symObjAddr: 0x2CA8, symBinAddr: 0x1000060DC, symSize: 0x24 }
  - { offsetInCU: 0xAB37, offset: 0x144C8, size: 0x8, addend: 0x0, symName: __ZNSt3__14pairIP4CardS2_EC1B7v160006IS2_S2_LPv0EEEOT_OT0_, symObjAddr: 0x2CCC, symBinAddr: 0x100006100, symSize: 0x3C }
  - { offsetInCU: 0xAB94, offset: 0x14525, size: 0x8, addend: 0x0, symName: __ZNSt3__14pairIP4CardS2_EC2B7v160006IS2_S2_LPv0EEEOT_OT0_, symObjAddr: 0x2D08, symBinAddr: 0x10000613C, symSize: 0x34 }
  - { offsetInCU: 0xABF2, offset: 0x14583, size: 0x8, addend: 0x0, symName: __ZNSt3__118__unwrap_iter_implIP4CardLb1EE8__rewrapB7v160006ES2_S2_, symObjAddr: 0x2D3C, symBinAddr: 0x100006170, symSize: 0x50 }
  - { offsetInCU: 0xAC23, offset: 0x145B4, size: 0x8, addend: 0x0, symName: __ZNSt3__111__wrap_iterIP4CardEC1B7v160006EPKvS2_, symObjAddr: 0x2D8C, symBinAddr: 0x1000061C0, symSize: 0x3C }
  - { offsetInCU: 0xAC67, offset: 0x145F8, size: 0x8, addend: 0x0, symName: __ZNSt3__111__wrap_iterIP4CardEC2B7v160006EPKvS2_, symObjAddr: 0x2DC8, symBinAddr: 0x1000061FC, symSize: 0x24 }
  - { offsetInCU: 0xACAC, offset: 0x1463D, size: 0x8, addend: 0x0, symName: __ZNSt3__111__wrap_iterIP4CardEpLB7v160006El, symObjAddr: 0x2DEC, symBinAddr: 0x100006220, symSize: 0x28 }
  - { offsetInCU: 0xACDF, offset: 0x14670, size: 0x8, addend: 0x0, symName: __ZNSt3__111__wrap_iterIPK4CardEC2B7v160006IPS1_EERKNS0_IT_EEPNS_9enable_ifIXsr14is_convertibleIS7_S3_EE5valueEvE4typeE, symObjAddr: 0x2E14, symBinAddr: 0x100006248, symSize: 0x40 }
  - { offsetInCU: 0xAD29, offset: 0x146BA, size: 0x8, addend: 0x0, symName: __ZNKSt3__111__wrap_iterIP4CardE4baseB7v160006Ev, symObjAddr: 0x2E54, symBinAddr: 0x100006288, symSize: 0x18 }
  - { offsetInCU: 0xAD4E, offset: 0x146DF, size: 0x8, addend: 0x0, symName: __ZN12SimplePlayerD2Ev, symObjAddr: 0x2E6C, symBinAddr: 0x1000062A0, symSize: 0x48 }
  - { offsetInCU: 0xAD79, offset: 0x1470A, size: 0x8, addend: 0x0, symName: __ZNSt3__16vectorI4CardNS_9allocatorIS1_EEED1B7v160006Ev, symObjAddr: 0x2EB4, symBinAddr: 0x1000062E8, symSize: 0x2C }
  - { offsetInCU: 0xADA1, offset: 0x14732, size: 0x8, addend: 0x0, symName: __ZN6PlayerD2Ev, symObjAddr: 0x2EE0, symBinAddr: 0x100006314, symSize: 0x14 }
  - { offsetInCU: 0xADCA, offset: 0x1475B, size: 0x8, addend: 0x0, symName: __ZNSt3__16vectorI4CardNS_9allocatorIS1_EEED2B7v160006Ev, symObjAddr: 0x2EF4, symBinAddr: 0x100006328, symSize: 0x44 }
  - { offsetInCU: 0xADF2, offset: 0x14783, size: 0x8, addend: 0x0, symName: __ZNSt3__16vectorI4CardNS_9allocatorIS1_EEE16__destroy_vectorC1ERS4_, symObjAddr: 0x2F38, symBinAddr: 0x10000636C, symSize: 0x34 }
  - { offsetInCU: 0xAE29, offset: 0x147BA, size: 0x8, addend: 0x0, symName: __ZNSt3__16vectorI4CardNS_9allocatorIS1_EEE16__destroy_vectorclB7v160006Ev, symObjAddr: 0x2F6C, symBinAddr: 0x1000063A0, symSize: 0x9C }
  - { offsetInCU: 0xAE4D, offset: 0x147DE, size: 0x8, addend: 0x0, symName: __ZNSt3__16vectorI4CardNS_9allocatorIS1_EEE16__destroy_vectorC2ERS4_, symObjAddr: 0x3008, symBinAddr: 0x10000643C, symSize: 0x20 }
  - { offsetInCU: 0xAE85, offset: 0x14816, size: 0x8, addend: 0x0, symName: __ZNSt3__16vectorI4CardNS_9allocatorIS1_EEE7__clearB7v160006Ev, symObjAddr: 0x3038, symBinAddr: 0x10000646C, symSize: 0x28 }
  - { offsetInCU: 0x5E, offset: 0x149D0, size: 0x8, addend: 0x0, symName: __ZL29register_test_player_get_name, symObjAddr: 0x5DE30, symBinAddr: 0x100014010, symSize: 0x0 }
  - { offsetInCU: 0x8D80, offset: 0x1D6F2, size: 0x8, addend: 0x0, symName: __ZNSt3__1lsB7v160006IcNS_11char_traitsIcEENS_9allocatorIcEEEERNS_13basic_ostreamIT_T0_EES9_RKNS_12basic_stringIS6_S7_T1_EE, symObjAddr: 0x4A4, symBinAddr: 0x100006938, symSize: 0x4C }
  - { offsetInCU: 0x8DD8, offset: 0x1D74A, size: 0x8, addend: 0x0, symName: __ZNSt3__14endlB7v160006IcNS_11char_traitsIcEEEERNS_13basic_ostreamIT_T0_EES7_, symObjAddr: 0x564, symBinAddr: 0x1000069B0, symSize: 0x58 }
  - { offsetInCU: 0x915E, offset: 0x1DAD0, size: 0x8, addend: 0x0, symName: __ZNSt3__1lsB7v160006INS_11char_traitsIcEEEERNS_13basic_ostreamIcT_EES6_c, symObjAddr: 0x7A8, symBinAddr: 0x100006BF4, symSize: 0x34 }
  - { offsetInCU: 0x91AF, offset: 0x1DB21, size: 0x8, addend: 0x0, symName: __ZNSt3__1neB7v160006IPNS_12basic_stringIcNS_11char_traitsIcEENS_9allocatorIcEEEEEEbRKNS_11__wrap_iterIT_EESC_, symObjAddr: 0x18A4, symBinAddr: 0x100007CE4, symSize: 0x34 }
  - { offsetInCU: 0x91F2, offset: 0x1DB64, size: 0x8, addend: 0x0, symName: __ZNSt3__1eqB7v160006ERKNS_14__map_iteratorINS_15__tree_iteratorINS_12__value_typeINS_12basic_stringIcNS_11char_traitsIcEENS_9allocatorIcEEEE8TestCaseEEPNS_11__tree_nodeISA_PvEElEEEESI_, symObjAddr: 0x18F0, symBinAddr: 0x100007D30, symSize: 0x30 }
  - { offsetInCU: 0x922F, offset: 0x1DBA1, size: 0x8, addend: 0x0, symName: __ZNSt3__13endB7v160006INS_3mapINS_12basic_stringIcNS_11char_traitsIcEENS_9allocatorIcEEEE8TestCaseNS_4lessIS7_EENS5_INS_4pairIKS7_S8_EEEEEEEEDTcldtfp_3endEERT_, symObjAddr: 0x1960, symBinAddr: 0x100007DA0, symSize: 0x2C }
  - { offsetInCU: 0x9264, offset: 0x1DBD6, size: 0x8, addend: 0x0, symName: __ZNSt3__1plB7v160006IcNS_11char_traitsIcEENS_9allocatorIcEEEENS_12basic_stringIT_T0_T1_EEOS9_PKS6_, symObjAddr: 0x198C, symBinAddr: 0x100007DCC, symSize: 0x40 }
  - { offsetInCU: 0x92BC, offset: 0x1DC2E, size: 0x8, addend: 0x0, symName: '__ZNSt3__18count_ifB7v160006INS_14__map_iteratorINS_15__tree_iteratorINS_12__value_typeINS_12basic_stringIcNS_11char_traitsIcEENS_9allocatorIcEEEE8TestCaseEEPNS_11__tree_nodeISB_PvEElEEEEZN9TestSuite9run_testsEiPPcE3$_0EENS_15iterator_traitsIT_E15difference_typeESN_SN_T0_', symObjAddr: 0x1A58, symBinAddr: 0x100007E98, symSize: 0xC4 }
  - { offsetInCU: 0x9325, offset: 0x1DC97, size: 0x8, addend: 0x0, symName: '__ZNSt3__18count_ifB7v160006INS_14__map_iteratorINS_15__tree_iteratorINS_12__value_typeINS_12basic_stringIcNS_11char_traitsIcEENS_9allocatorIcEEEE8TestCaseEEPNS_11__tree_nodeISB_PvEElEEEEZN9TestSuite9run_testsEiPPcE3$_1EENS_15iterator_traitsIT_E15difference_typeESN_SN_T0_', symObjAddr: 0x1B8C, symBinAddr: 0x100007FCC, symSize: 0xC4 }
  - { offsetInCU: 0x938E, offset: 0x1DD00, size: 0x8, addend: 0x0, symName: __ZNSt3__1eqB7v160006IcNS_11char_traitsIcEENS_9allocatorIcEEEEbPKT_RKNS_12basic_stringIS5_T0_T1_EE, symObjAddr: 0x1CA4, symBinAddr: 0x1000080E4, symSize: 0xAC }
  - { offsetInCU: 0x93F5, offset: 0x1DD67, size: 0x8, addend: 0x0, symName: __ZNSt3__15flushB7v160006IcNS_11char_traitsIcEEEERNS_13basic_ostreamIT_T0_EES7_, symObjAddr: 0x1E90, symBinAddr: 0x1000082D0, symSize: 0x28 }
  - { offsetInCU: 0x9435, offset: 0x1DDA7, size: 0x8, addend: 0x0, symName: '__ZNSt3__19transformB7v160006INS_14__map_iteratorINS_15__tree_iteratorINS_12__value_typeINS_12basic_stringIcNS_11char_traitsIcEENS_9allocatorIcEEEE8TestCaseEEPNS_11__tree_nodeISB_PvEElEEEENS_20back_insert_iteratorINS_6vectorIS9_NS7_IS9_EEEEEEZN9TestSuite21get_test_names_to_runEiPPcE3$_2EET0_T_SS_SR_T1_', symObjAddr: 0x1FC8, symBinAddr: 0x100008408, symSize: 0x104 }
  - { offsetInCU: 0x94A7, offset: 0x1DE19, size: 0x8, addend: 0x0, symName: __ZNSt3__15beginB7v160006INS_3mapINS_12basic_stringIcNS_11char_traitsIcEENS_9allocatorIcEEEE8TestCaseNS_4lessIS7_EENS5_INS_4pairIKS7_S8_EEEEEEEEDTcldtfp_5beginEERT_, symObjAddr: 0x20CC, symBinAddr: 0x10000850C, symSize: 0x2C }
  - { offsetInCU: 0x94DC, offset: 0x1DE4E, size: 0x8, addend: 0x0, symName: __ZNSt3__113back_inserterB7v160006INS_6vectorINS_12basic_stringIcNS_11char_traitsIcEENS_9allocatorIcEEEENS5_IS7_EEEEEENS_20back_insert_iteratorIT_EERSB_, symObjAddr: 0x20F8, symBinAddr: 0x100008538, symSize: 0x2C }
  - { offsetInCU: 0x9511, offset: 0x1DE83, size: 0x8, addend: 0x0, symName: __ZNSt3__1eqB7v160006IPNS_12basic_stringIcNS_11char_traitsIcEENS_9allocatorIcEEEEEEbRKNS_11__wrap_iterIT_EESC_, symObjAddr: 0x299C, symBinAddr: 0x100008DDC, symSize: 0x48 }
  - { offsetInCU: 0x9587, offset: 0x1DEF9, size: 0x8, addend: 0x0, symName: __ZNSt3__17launderB7v160006INS_4pairIKNS_12basic_stringIcNS_11char_traitsIcEENS_9allocatorIcEEEE8TestCaseEEEEPT_SC_, symObjAddr: 0x327C, symBinAddr: 0x1000096BC, symSize: 0x24 }
  - { offsetInCU: 0x95BE, offset: 0x1DF30, size: 0x8, addend: 0x0, symName: __ZNSt3__19__launderB7v160006INS_4pairIKNS_12basic_stringIcNS_11char_traitsIcEENS_9allocatorIcEEEE8TestCaseEEEEPT_SC_, symObjAddr: 0x32A0, symBinAddr: 0x1000096E0, symSize: 0x14 }
  - { offsetInCU: 0x95F6, offset: 0x1DF68, size: 0x8, addend: 0x0, symName: __ZNSt3__1neB7v160006ERKNS_14__map_iteratorINS_15__tree_iteratorINS_12__value_typeINS_12basic_stringIcNS_11char_traitsIcEENS_9allocatorIcEEEE8TestCaseEEPNS_11__tree_nodeISA_PvEElEEEESI_, symObjAddr: 0x3484, symBinAddr: 0x10000979C, symSize: 0x30 }
  - { offsetInCU: 0x9633, offset: 0x1DFA5, size: 0x8, addend: 0x0, symName: __ZNSt3__1neB7v160006ERKNS_15__tree_iteratorINS_12__value_typeINS_12basic_stringIcNS_11char_traitsIcEENS_9allocatorIcEEEE8TestCaseEEPNS_11__tree_nodeIS9_PvEElEESG_, symObjAddr: 0x3508, symBinAddr: 0x100009820, symSize: 0x34 }
  - { offsetInCU: 0x9670, offset: 0x1DFE2, size: 0x8, addend: 0x0, symName: __ZNSt3__1eqB7v160006ERKNS_15__tree_iteratorINS_12__value_typeINS_12basic_stringIcNS_11char_traitsIcEENS_9allocatorIcEEEE8TestCaseEEPNS_11__tree_nodeIS9_PvEElEESG_, symObjAddr: 0x353C, symBinAddr: 0x100009854, symSize: 0x30 }
  - { offsetInCU: 0x96E1, offset: 0x1E053, size: 0x8, addend: 0x0, symName: __ZNSt3__116__tree_next_iterB7v160006IPNS_15__tree_end_nodeIPNS_16__tree_node_baseIPvEEEES5_EET_T0_, symObjAddr: 0x35FC, symBinAddr: 0x100009914, symSize: 0x90 }
  - { offsetInCU: 0x971F, offset: 0x1E091, size: 0x8, addend: 0x0, symName: __ZNSt3__110__tree_minB7v160006IPNS_16__tree_node_baseIPvEEEET_S5_, symObjAddr: 0x368C, symBinAddr: 0x1000099A4, symSize: 0x40 }
  - { offsetInCU: 0x9754, offset: 0x1E0C6, size: 0x8, addend: 0x0, symName: __ZNSt3__120__tree_is_left_childB7v160006IPNS_16__tree_node_baseIPvEEEEbT_, symObjAddr: 0x36CC, symBinAddr: 0x1000099E4, symSize: 0x2C }
  - { offsetInCU: 0x9789, offset: 0x1E0FB, size: 0x8, addend: 0x0, symName: __ZNSt3__115__debug_db_swapB7v160006INS_12basic_stringIcNS_11char_traitsIcEENS_9allocatorIcEEEEEEvPT_S8_, symObjAddr: 0x3970, symBinAddr: 0x100009C00, symSize: 0x14 }
  - { offsetInCU: 0x97ED, offset: 0x1E15F, size: 0x8, addend: 0x0, symName: __ZNSt3__1ltB7v160006IcNS_11char_traitsIcEENS_9allocatorIcEEEEbRKNS_12basic_stringIT_T0_T1_EESB_, symObjAddr: 0x4360, symBinAddr: 0x10000A580, symSize: 0x38 }
  - { offsetInCU: 0x986A, offset: 0x1E1DC, size: 0x8, addend: 0x0, symName: __ZNSt3__118__constexpr_memcmpB7v160006IcEEiPKT_S3_m, symObjAddr: 0x4700, symBinAddr: 0x10000A844, symSize: 0x34 }
  - { offsetInCU: 0x98BB, offset: 0x1E22D, size: 0x8, addend: 0x0, symName: __ZNSt3__112__to_addressB7v160006IKcEEPT_S3_, symObjAddr: 0x4734, symBinAddr: 0x10000A878, symSize: 0x14 }
  - { offsetInCU: 0x9923, offset: 0x1E295, size: 0x8, addend: 0x0, symName: __ZNSt3__17launderB7v160006IKNS_4pairIKNS_12basic_stringIcNS_11char_traitsIcEENS_9allocatorIcEEEE8TestCaseEEEEPT_SD_, symObjAddr: 0x4914, symBinAddr: 0x10000A9D0, symSize: 0x24 }
  - { offsetInCU: 0x995A, offset: 0x1E2CC, size: 0x8, addend: 0x0, symName: __ZNSt3__19__launderB7v160006IKNS_4pairIKNS_12basic_stringIcNS_11char_traitsIcEENS_9allocatorIcEEEE8TestCaseEEEEPT_SD_, symObjAddr: 0x4938, symBinAddr: 0x10000A9F4, symSize: 0x14 }
  - { offsetInCU: 0x99B0, offset: 0x1E322, size: 0x8, addend: 0x0, symName: __ZNSt3__127__tree_balance_after_insertB7v160006IPNS_16__tree_node_baseIPvEEEEvT_S5_, symObjAddr: 0x4F00, symBinAddr: 0x10000AED8, symSize: 0x27C }
  - { offsetInCU: 0x9A2D, offset: 0x1E39F, size: 0x8, addend: 0x0, symName: __ZNSt3__118__tree_left_rotateB7v160006IPNS_16__tree_node_baseIPvEEEEvT_, symObjAddr: 0x51A4, symBinAddr: 0x10000B17C, symSize: 0xD8 }
  - { offsetInCU: 0x9A70, offset: 0x1E3E2, size: 0x8, addend: 0x0, symName: __ZNSt3__119__tree_right_rotateB7v160006IPNS_16__tree_node_baseIPvEEEEvT_, symObjAddr: 0x527C, symBinAddr: 0x10000B254, symSize: 0xCC }
  - { offsetInCU: 0x9AB3, offset: 0x1E425, size: 0x8, addend: 0x0, symName: __ZNSt3__15beginB7v160006IKcLm6EEEPT_RAT0__S2_, symObjAddr: 0x5C0C, symBinAddr: 0x10000BA74, symSize: 0x14 }
  - { offsetInCU: 0x9AF2, offset: 0x1E464, size: 0x8, addend: 0x0, symName: __ZNSt3__13endB7v160006IKcLm6EEEPT_RAT0__S2_, symObjAddr: 0x5C20, symBinAddr: 0x10000BA88, symSize: 0x18 }
  - { offsetInCU: 0x9B31, offset: 0x1E4A3, size: 0x8, addend: 0x0, symName: __ZNSt3__119__debug_db_insert_cB7v160006INS_6vectorINS_12basic_stringIcNS_11char_traitsIcEENS_9allocatorIcEEEENS5_IS7_EEEEEEvPT_, symObjAddr: 0x6CC0, symBinAddr: 0x10000C10C, symSize: 0x10 }
  - { offsetInCU: 0x9B62, offset: 0x1E4D4, size: 0x8, addend: 0x0, symName: __ZNSt3__118__debug_db_erase_cB7v160006INS_6vectorINS_12basic_stringIcNS_11char_traitsIcEENS_9allocatorIcEEEENS5_IS7_EEEEEEvPT_, symObjAddr: 0x6FA0, symBinAddr: 0x10000C3EC, symSize: 0x10 }
  - { offsetInCU: 0x9B93, offset: 0x1E505, size: 0x8, addend: 0x0, symName: __ZNSt3__112__to_addressB7v160006INS_12basic_stringIcNS_11char_traitsIcEENS_9allocatorIcEEEEEEPT_S8_, symObjAddr: 0x70BC, symBinAddr: 0x10000C508, symSize: 0x14 }
  - { offsetInCU: 0x9BC8, offset: 0x1E53A, size: 0x8, addend: 0x0, symName: __ZNSt3__115__debug_db_swapB7v160006INS_6vectorINS_12basic_stringIcNS_11char_traitsIcEENS_9allocatorIcEEEENS5_IS7_EEEEEEvPT_SB_, symObjAddr: 0x7418, symBinAddr: 0x10000C864, symSize: 0x14 }
  - { offsetInCU: 0x9C07, offset: 0x1E579, size: 0x8, addend: 0x0, symName: __ZNSt3__125__debug_db_invalidate_allB7v160006INS_6vectorINS_12basic_stringIcNS_11char_traitsIcEENS_9allocatorIcEEEENS5_IS7_EEEEEEvPT_, symObjAddr: 0x7550, symBinAddr: 0x10000C99C, symSize: 0x10 }
  - { offsetInCU: 0x9C38, offset: 0x1E5AA, size: 0x8, addend: 0x0, symName: __ZNSt3__120__throw_out_of_rangeB7v160006EPKc, symObjAddr: 0x7828, symBinAddr: 0x10000CC74, symSize: 0x64 }
  - { offsetInCU: 0x9D37, offset: 0x1E6A9, size: 0x8, addend: 0x0, symName: __ZNSt3__13getB7v160006ILm0EKNS_12basic_stringIcNS_11char_traitsIcEENS_9allocatorIcEEEE8TestCaseEERNS_13tuple_elementIXT_ENS_4pairIT0_T1_EEE4typeERSD_, symObjAddr: 0x7A1C, symBinAddr: 0x10000CE68, symSize: 0x24 }
  - { offsetInCU: 0x9D80, offset: 0x1E6F2, size: 0x8, addend: 0x0, symName: __ZNSt3__13getB7v160006ILm1EKNS_12basic_stringIcNS_11char_traitsIcEENS_9allocatorIcEEEE8TestCaseEERNS_13tuple_elementIXT_ENS_4pairIT0_T1_EEE4typeERSD_, symObjAddr: 0x7A40, symBinAddr: 0x10000CE8C, symSize: 0x24 }
  - { offsetInCU: 0x9E43, offset: 0x1E7B5, size: 0x8, addend: 0x0, symName: __ZNSt3__119__allocate_at_leastB7v160006INS_9allocatorINS_12basic_stringIcNS_11char_traitsIcEENS1_IcEEEEEEEENS_19__allocation_resultINS_16allocator_traitsIT_E7pointerEEERSA_m, symObjAddr: 0x84D0, symBinAddr: 0x10000D79C, symSize: 0x40 }
  - { offsetInCU: 0x9E86, offset: 0x1E7F8, size: 0x8, addend: 0x0, symName: __ZNSt3__142__uninitialized_allocator_move_if_noexceptB7v160006INS_9allocatorINS_12basic_stringIcNS_11char_traitsIcEENS1_IcEEEEEENS_16reverse_iteratorIPS6_EESA_SA_EET2_RT_T0_T1_SB_, symObjAddr: 0x8688, symBinAddr: 0x10000D954, symSize: 0x12C }
  - { offsetInCU: 0x9F26, offset: 0x1E898, size: 0x8, addend: 0x0, symName: __ZNSt3__14swapB7v160006IPNS_12basic_stringIcNS_11char_traitsIcEENS_9allocatorIcEEEEEENS_9enable_ifIXaasr21is_move_constructibleIT_EE5valuesr18is_move_assignableIS9_EE5valueEvE4typeERS9_SC_, symObjAddr: 0x8800, symBinAddr: 0x10000DACC, symSize: 0x3C }
  - { offsetInCU: 0x9F77, offset: 0x1E8E9, size: 0x8, addend: 0x0, symName: __ZNSt3__122__make_exception_guardB7v160006INS_29_AllocatorDestroyRangeReverseINS_9allocatorINS_12basic_stringIcNS_11char_traitsIcEENS2_IcEEEEEENS_16reverse_iteratorIPS7_EEEEEENS_28__exception_guard_exceptionsIT_EESE_, symObjAddr: 0x8904, symBinAddr: 0x10000DBD0, symSize: 0x4C }
  - { offsetInCU: 0x9FAD, offset: 0x1E91F, size: 0x8, addend: 0x0, symName: __ZNSt3__1neB7v160006IPNS_12basic_stringIcNS_11char_traitsIcEENS_9allocatorIcEEEES7_EEbRKNS_16reverse_iteratorIT_EERKNS8_IT0_EE, symObjAddr: 0x8994, symBinAddr: 0x10000DC60, symSize: 0x48 }
  - { offsetInCU: 0x9FF9, offset: 0x1E96B, size: 0x8, addend: 0x0, symName: __ZNSt3__112__to_addressB7v160006INS_16reverse_iteratorIPNS_12basic_stringIcNS_11char_traitsIcEENS_9allocatorIcEEEEEEvEENS_5decayIDTclsr19__to_address_helperIT_EE6__callclsr3stdE7declvalIRKSB_EEEEE4typeESD_, symObjAddr: 0x89DC, symBinAddr: 0x10000DCA8, symSize: 0x24 }
  - { offsetInCU: 0xA059, offset: 0x1E9CB, size: 0x8, addend: 0x0, symName: __ZNSt3__119__allocator_destroyB7v160006INS_9allocatorINS_12basic_stringIcNS_11char_traitsIcEENS1_IcEEEEEENS_16reverse_iteratorINS8_IPS6_EEEESB_EEvRT_T0_T1_, symObjAddr: 0x8C8C, symBinAddr: 0x10000DF58, symSize: 0x70 }
  - { offsetInCU: 0xA0BF, offset: 0x1EA31, size: 0x8, addend: 0x0, symName: __ZNSt3__1neB7v160006INS_16reverse_iteratorIPNS_12basic_stringIcNS_11char_traitsIcEENS_9allocatorIcEEEEEES9_EEbRKNS1_IT_EERKNS1_IT0_EE, symObjAddr: 0x8D38, symBinAddr: 0x10000E004, symSize: 0x60 }
  - { offsetInCU: 0xA10B, offset: 0x1EA7D, size: 0x8, addend: 0x0, symName: __ZNSt3__112__to_addressB7v160006INS_16reverse_iteratorINS1_IPNS_12basic_stringIcNS_11char_traitsIcEENS_9allocatorIcEEEEEEEEvEENS_5decayIDTclsr19__to_address_helperIT_EE6__callclsr3stdE7declvalIRKSC_EEEEE4typeESE_, symObjAddr: 0x8D98, symBinAddr: 0x10000E064, symSize: 0x24 }
  - { offsetInCU: 0xA641, offset: 0x1EFB3, size: 0x8, addend: 0x0, symName: __ZL9destroyer, symObjAddr: 0x5DE31, symBinAddr: 0x100014011, symSize: 0x0 }
  - { offsetInCU: 0xA672, offset: 0x1EFE4, size: 0x8, addend: 0x0, symName: __ZN9TestSuite10incompleteE, symObjAddr: 0x5DE20, symBinAddr: 0x100014000, symSize: 0x0 }
  - { offsetInCU: 0xB034, offset: 0x1F9A6, size: 0x8, addend: 0x0, symName: __ZN9TestSuite8instanceE, symObjAddr: 0x5DE28, symBinAddr: 0x100014008, symSize: 0x0 }
  - { offsetInCU: 0xB056, offset: 0x1F9C8, size: 0x8, addend: 0x0, symName: __ZNSt3__16vectorINS_12basic_stringIcNS_11char_traitsIcEENS_9allocatorIcEEEENS4_IS6_EEE26__swap_out_circular_bufferERNS_14__split_bufferIS6_RS7_EE, symObjAddr: 0x7FD8, symBinAddr: 0x10000D424, symSize: 0x118 }
  - { offsetInCU: 0xCE51, offset: 0x217C3, size: 0x8, addend: 0x0, symName: __Z18safe_equals_helpermi, symObjAddr: 0x0, symBinAddr: 0x100006494, symSize: 0x50 }
  - { offsetInCU: 0xCE8F, offset: 0x21801, size: 0x8, addend: 0x0, symName: __Z18safe_equals_helperim, symObjAddr: 0x50, symBinAddr: 0x1000064E4, symSize: 0x50 }
  - { offsetInCU: 0xCECD, offset: 0x2183F, size: 0x8, addend: 0x0, symName: __Z22safe_not_equals_helpermi, symObjAddr: 0xA0, symBinAddr: 0x100006534, symSize: 0x50 }
  - { offsetInCU: 0xCF0B, offset: 0x2187D, size: 0x8, addend: 0x0, symName: __Z22safe_not_equals_helperim, symObjAddr: 0xF0, symBinAddr: 0x100006584, symSize: 0x50 }
  - { offsetInCU: 0xCF4A, offset: 0x218BC, size: 0x8, addend: 0x0, symName: __ZN8TestCase3runEb, symObjAddr: 0x140, symBinAddr: 0x1000065D4, symSize: 0x364 }
  - { offsetInCU: 0xCFB5, offset: 0x21927, size: 0x8, addend: 0x0, symName: __ZNSt3__113basic_ostreamIcNS_11char_traitsIcEEElsB7v160006EPFRS3_S4_E, symObjAddr: 0x538, symBinAddr: 0x100006984, symSize: 0x2C }
  - { offsetInCU: 0xD037, offset: 0x219A9, size: 0x8, addend: 0x0, symName: __ZNSt3__119basic_ostringstreamIcNS_11char_traitsIcEENS_9allocatorIcEEEC1B7v160006Ev, symObjAddr: 0x5BC, symBinAddr: 0x100006A08, symSize: 0xEC }
  - { offsetInCU: 0xD05E, offset: 0x219D0, size: 0x8, addend: 0x0, symName: __Z8demanglePKc, symObjAddr: 0x6A8, symBinAddr: 0x100006AF4, symSize: 0xDC }
  - { offsetInCU: 0xD0EE, offset: 0x21A60, size: 0x8, addend: 0x0, symName: __ZNKSt9type_info4nameB7v160006Ev, symObjAddr: 0x784, symBinAddr: 0x100006BD0, symSize: 0x24 }
  - { offsetInCU: 0xD133, offset: 0x21AA5, size: 0x8, addend: 0x0, symName: __ZNKSt3__119basic_ostringstreamIcNS_11char_traitsIcEENS_9allocatorIcEEE3strB7v160006Ev, symObjAddr: 0x7DC, symBinAddr: 0x100006C28, symSize: 0x30 }
  - { offsetInCU: 0xD157, offset: 0x21AC9, size: 0x8, addend: 0x0, symName: __ZNSt3__112basic_stringIcNS_11char_traitsIcEENS_9allocatorIcEEEaSB7v160006EOS5_, symObjAddr: 0x80C, symBinAddr: 0x100006C58, symSize: 0x34 }
  - { offsetInCU: 0xD18F, offset: 0x21B01, size: 0x8, addend: 0x0, symName: __ZNSt3__119basic_ostringstreamIcNS_11char_traitsIcEENS_9allocatorIcEEED1Ev, symObjAddr: 0x840, symBinAddr: 0x100006C8C, symSize: 0x40 }
  - { offsetInCU: 0xD253, offset: 0x21BC5, size: 0x8, addend: 0x0, symName: __ZNK11TestFailure9to_stringEv, symObjAddr: 0x88C, symBinAddr: 0x100006CCC, symSize: 0x98 }
  - { offsetInCU: 0xD285, offset: 0x21BF7, size: 0x8, addend: 0x0, symName: __ZN8TestCase5printEb, symObjAddr: 0x924, symBinAddr: 0x100006D64, symSize: 0x170 }
  - { offsetInCU: 0xD2BB, offset: 0x21C2D, size: 0x8, addend: 0x0, symName: __ZNKSt3__112basic_stringIcNS_11char_traitsIcEENS_9allocatorIcEEE5emptyB7v160006Ev, symObjAddr: 0xA94, symBinAddr: 0x100006ED4, symSize: 0x30 }
  - { offsetInCU: 0xD2DF, offset: 0x21C51, size: 0x8, addend: 0x0, symName: __ZN9TestSuite9run_testsEiPPc, symObjAddr: 0xAC4, symBinAddr: 0x100006F04, symSize: 0x690 }
  - { offsetInCU: 0xD4EC, offset: 0x21E5E, size: 0x8, addend: 0x0, symName: __ZN11SetCompleteC1ERb, symObjAddr: 0x1154, symBinAddr: 0x100007594, symSize: 0x34 }
  - { offsetInCU: 0xD523, offset: 0x21E95, size: 0x8, addend: 0x0, symName: __ZNSt3__16vectorINS_12basic_stringIcNS_11char_traitsIcEENS_9allocatorIcEEEENS4_IS6_EEEC1B7v160006Ev, symObjAddr: 0x1188, symBinAddr: 0x1000075C8, symSize: 0x2C }
  - { offsetInCU: 0xD54B, offset: 0x21EBD, size: 0x8, addend: 0x0, symName: __ZN9TestSuite21get_test_names_to_runEiPPc, symObjAddr: 0x11B4, symBinAddr: 0x1000075F4, symSize: 0x630 }
  - { offsetInCU: 0xD5DE, offset: 0x21F50, size: 0x8, addend: 0x0, symName: __ZNSt3__16vectorINS_12basic_stringIcNS_11char_traitsIcEENS_9allocatorIcEEEENS4_IS6_EEEaSB7v160006EOS8_, symObjAddr: 0x17E4, symBinAddr: 0x100007C24, symSize: 0x34 }
  - { offsetInCU: 0xD614, offset: 0x21F86, size: 0x8, addend: 0x0, symName: __ZNSt3__16vectorINS_12basic_stringIcNS_11char_traitsIcEENS_9allocatorIcEEEENS4_IS6_EEED1B7v160006Ev, symObjAddr: 0x1818, symBinAddr: 0x100007C58, symSize: 0x2C }
  - { offsetInCU: 0xD63C, offset: 0x21FAE, size: 0x8, addend: 0x0, symName: __ZNSt3__16vectorINS_12basic_stringIcNS_11char_traitsIcEENS_9allocatorIcEEEENS4_IS6_EEE5beginB7v160006Ev, symObjAddr: 0x1844, symBinAddr: 0x100007C84, symSize: 0x30 }
  - { offsetInCU: 0xD663, offset: 0x21FD5, size: 0x8, addend: 0x0, symName: __ZNSt3__16vectorINS_12basic_stringIcNS_11char_traitsIcEENS_9allocatorIcEEEENS4_IS6_EEE3endB7v160006Ev, symObjAddr: 0x1874, symBinAddr: 0x100007CB4, symSize: 0x30 }
  - { offsetInCU: 0xD68A, offset: 0x21FFC, size: 0x8, addend: 0x0, symName: __ZNKSt3__111__wrap_iterIPNS_12basic_stringIcNS_11char_traitsIcEENS_9allocatorIcEEEEEdeB7v160006Ev, symObjAddr: 0x18D8, symBinAddr: 0x100007D18, symSize: 0x18 }
  - { offsetInCU: 0xD6AF, offset: 0x22021, size: 0x8, addend: 0x0, symName: __ZNSt3__13mapINS_12basic_stringIcNS_11char_traitsIcEENS_9allocatorIcEEEE8TestCaseNS_4lessIS6_EENS4_INS_4pairIKS6_S7_EEEEE4findB7v160006ERSB_, symObjAddr: 0x1920, symBinAddr: 0x100007D60, symSize: 0x40 }
  - { offsetInCU: 0xD6E2, offset: 0x22054, size: 0x8, addend: 0x0, symName: __ZNSt3__111__wrap_iterIPNS_12basic_stringIcNS_11char_traitsIcEENS_9allocatorIcEEEEEppB7v160006Ev, symObjAddr: 0x19CC, symBinAddr: 0x100007E0C, symSize: 0x20 }
  - { offsetInCU: 0xD707, offset: 0x22079, size: 0x8, addend: 0x0, symName: __ZNSt3__13mapINS_12basic_stringIcNS_11char_traitsIcEENS_9allocatorIcEEEE8TestCaseNS_4lessIS6_EENS4_INS_4pairIKS6_S7_EEEEE2atERSB_, symObjAddr: 0x19EC, symBinAddr: 0x100007E2C, symSize: 0x6C }
  - { offsetInCU: 0xD75B, offset: 0x220CD, size: 0x8, addend: 0x0, symName: __ZNSt3__13mapINS_12basic_stringIcNS_11char_traitsIcEENS_9allocatorIcEEEE8TestCaseNS_4lessIS6_EENS4_INS_4pairIKS6_S7_EEEEE5beginB7v160006Ev, symObjAddr: 0x1B1C, symBinAddr: 0x100007F5C, symSize: 0x38 }
  - { offsetInCU: 0xD77F, offset: 0x220F1, size: 0x8, addend: 0x0, symName: __ZNSt3__13mapINS_12basic_stringIcNS_11char_traitsIcEENS_9allocatorIcEEEE8TestCaseNS_4lessIS6_EENS4_INS_4pairIKS6_S7_EEEEE3endB7v160006Ev, symObjAddr: 0x1B54, symBinAddr: 0x100007F94, symSize: 0x38 }
  - { offsetInCU: 0xD7A3, offset: 0x22115, size: 0x8, addend: 0x0, symName: __ZNKSt3__16vectorINS_12basic_stringIcNS_11char_traitsIcEENS_9allocatorIcEEEENS4_IS6_EEE4sizeB7v160006Ev, symObjAddr: 0x1C50, symBinAddr: 0x100008090, symSize: 0x28 }
  - { offsetInCU: 0xD7C8, offset: 0x2213A, size: 0x8, addend: 0x0, symName: __ZN11SetCompleteD1Ev, symObjAddr: 0x1C78, symBinAddr: 0x1000080B8, symSize: 0x2C }
  - { offsetInCU: 0xD7F5, offset: 0x22167, size: 0x8, addend: 0x0, symName: __ZNSt3__112basic_stringIcNS_11char_traitsIcEENS_9allocatorIcEEEC1B7v160006IDnEEPKc, symObjAddr: 0x1D50, symBinAddr: 0x100008190, symSize: 0x34 }
  - { offsetInCU: 0xD832, offset: 0x221A4, size: 0x8, addend: 0x0, symName: __ZN9TestSuite3getEv, symObjAddr: 0x1D84, symBinAddr: 0x1000081C4, symSize: 0x80 }
  - { offsetInCU: 0xD846, offset: 0x221B8, size: 0x8, addend: 0x0, symName: __ZN9TestSuite16print_test_namesERNSt3__113basic_ostreamIcNS0_11char_traitsIcEEEE, symObjAddr: 0x1E04, symBinAddr: 0x100008244, symSize: 0x8C }
  - { offsetInCU: 0xD91B, offset: 0x2228D, size: 0x8, addend: 0x0, symName: __ZN9ExitSuiteC1Ei, symObjAddr: 0x1EB8, symBinAddr: 0x1000082F8, symSize: 0x34 }
  - { offsetInCU: 0xD952, offset: 0x222C4, size: 0x8, addend: 0x0, symName: __ZN9ExitSuiteD1Ev, symObjAddr: 0x1EEC, symBinAddr: 0x10000832C, symSize: 0x2C }
  - { offsetInCU: 0xD97E, offset: 0x222F0, size: 0x8, addend: 0x0, symName: __ZN9TestSuite17enable_quiet_modeEv, symObjAddr: 0x1F18, symBinAddr: 0x100008358, symSize: 0x1C }
  - { offsetInCU: 0xD9A3, offset: 0x22315, size: 0x8, addend: 0x0, symName: __ZNSt3__16vectorINS_12basic_stringIcNS_11char_traitsIcEENS_9allocatorIcEEEENS4_IS6_EEE9push_backB7v160006EOS6_, symObjAddr: 0x1F34, symBinAddr: 0x100008374, symSize: 0x6C }
  - { offsetInCU: 0xD9D9, offset: 0x2234B, size: 0x8, addend: 0x0, symName: __ZNKSt3__16vectorINS_12basic_stringIcNS_11char_traitsIcEENS_9allocatorIcEEEENS4_IS6_EEE5emptyB7v160006Ev, symObjAddr: 0x1FA0, symBinAddr: 0x1000083E0, symSize: 0x28 }
  - { offsetInCU: 0xD9FD, offset: 0x2236F, size: 0x8, addend: 0x0, symName: __ZlsRNSt3__113basic_ostreamIcNS_11char_traitsIcEEEERK11TestFailure, symObjAddr: 0x2124, symBinAddr: 0x100008564, symSize: 0x2C }
  - { offsetInCU: 0xDA3B, offset: 0x223AD, size: 0x8, addend: 0x0, symName: __ZNK11TestFailure5printERNSt3__113basic_ostreamIcNS0_11char_traitsIcEEEE, symObjAddr: 0x2150, symBinAddr: 0x100008590, symSize: 0x7C }
  - { offsetInCU: 0xDA6C, offset: 0x223DE, size: 0x8, addend: 0x0, symName: __Z11assert_truebiPKc, symObjAddr: 0x21CC, symBinAddr: 0x10000860C, symSize: 0x148 }
  - { offsetInCU: 0xDAC6, offset: 0x22438, size: 0x8, addend: 0x0, symName: __ZN11TestFailureC1ENSt3__112basic_stringIcNS0_11char_traitsIcEENS0_9allocatorIcEEEEiPKc, symObjAddr: 0x2314, symBinAddr: 0x100008754, symSize: 0x44 }
  - { offsetInCU: 0xDB19, offset: 0x2248B, size: 0x8, addend: 0x0, symName: __ZN11TestFailureD1Ev, symObjAddr: 0x2358, symBinAddr: 0x100008798, symSize: 0x2C }
  - { offsetInCU: 0xDB43, offset: 0x224B5, size: 0x8, addend: 0x0, symName: __Z12assert_falsebiPKc, symObjAddr: 0x2384, symBinAddr: 0x1000087C4, symSize: 0x148 }
  - { offsetInCU: 0xDB9C, offset: 0x2250E, size: 0x8, addend: 0x0, symName: __Z19assert_almost_equaldddiPKc, symObjAddr: 0x24CC, symBinAddr: 0x10000890C, symSize: 0x1C8 }
  - { offsetInCU: 0xDC13, offset: 0x22585, size: 0x8, addend: 0x0, symName: __Z3absB7v160006d, symObjAddr: 0x2694, symBinAddr: 0x100008AD4, symSize: 0x18 }
  - { offsetInCU: 0xDC40, offset: 0x225B2, size: 0x8, addend: 0x0, symName: __ZNSt3__18ios_base9precisionB7v160006El, symObjAddr: 0x26AC, symBinAddr: 0x100008AEC, symSize: 0x2C }
  - { offsetInCU: 0xDC85, offset: 0x225F7, size: 0x8, addend: 0x0, symName: __ZL20test_player_get_namev, symObjAddr: 0x26D8, symBinAddr: 0x100008B18, symSize: 0xFC }
  - { offsetInCU: 0xDCAE, offset: 0x22620, size: 0x8, addend: 0x0, symName: __ZN14TestRegistererC1ERKNSt3__112basic_stringIcNS0_11char_traitsIcEENS0_9allocatorIcEEEEPFvvE, symObjAddr: 0x27D4, symBinAddr: 0x100008C14, symSize: 0x3C }
  - { offsetInCU: 0xDCF2, offset: 0x22664, size: 0x8, addend: 0x0, symName: _main, symObjAddr: 0x2810, symBinAddr: 0x100008C50, symSize: 0x34 }
  - { offsetInCU: 0xDD29, offset: 0x2269B, size: 0x8, addend: 0x0, symName: __ZN18TestSuiteDestroyerD1Ev, symObjAddr: 0x2844, symBinAddr: 0x100008C84, symSize: 0x2C }
  - { offsetInCU: 0xDD51, offset: 0x226C3, size: 0x8, addend: 0x0, symName: __ZNSt3__119basic_ostringstreamIcNS_11char_traitsIcEENS_9allocatorIcEEED2Ev, symObjAddr: 0x2870, symBinAddr: 0x100008CB0, symSize: 0x64 }
  - { offsetInCU: 0xDD89, offset: 0x226FB, size: 0x8, addend: 0x0, symName: __ZTv0_n24_NSt3__119basic_ostringstreamIcNS_11char_traitsIcEENS_9allocatorIcEEED1Ev, symObjAddr: 0x28D4, symBinAddr: 0x100008D14, symSize: 0x28 }
  - { offsetInCU: 0xDDA5, offset: 0x22717, size: 0x8, addend: 0x0, symName: __ZNSt3__115basic_stringbufIcNS_11char_traitsIcEENS_9allocatorIcEEED1Ev, symObjAddr: 0x28FC, symBinAddr: 0x100008D3C, symSize: 0x2C }
  - { offsetInCU: 0xDDD1, offset: 0x22743, size: 0x8, addend: 0x0, symName: __ZNSt3__115basic_stringbufIcNS_11char_traitsIcEENS_9allocatorIcEEED2Ev, symObjAddr: 0x2928, symBinAddr: 0x100008D68, symSize: 0x48 }
  - { offsetInCU: 0xDDFD, offset: 0x2276F, size: 0x8, addend: 0x0, symName: __ZN11SetCompleteC2ERb, symObjAddr: 0x2970, symBinAddr: 0x100008DB0, symSize: 0x2C }
  - { offsetInCU: 0xDE35, offset: 0x227A7, size: 0x8, addend: 0x0, symName: __ZNKSt3__111__wrap_iterIPNS_12basic_stringIcNS_11char_traitsIcEENS_9allocatorIcEEEEE4baseB7v160006Ev, symObjAddr: 0x29E4, symBinAddr: 0x100008E24, symSize: 0x18 }
  - { offsetInCU: 0xDE5A, offset: 0x227CC, size: 0x8, addend: 0x0, symName: __ZN11SetCompleteD2Ev, symObjAddr: 0x29FC, symBinAddr: 0x100008E3C, symSize: 0x1C }
  - { offsetInCU: 0xDE83, offset: 0x227F5, size: 0x8, addend: 0x0, symName: __ZN9TestSuiteC1Ev, symObjAddr: 0x2A18, symBinAddr: 0x100008E58, symSize: 0x2C }
  - { offsetInCU: 0xDEAB, offset: 0x2281D, size: 0x8, addend: 0x0, symName: __ZN9TestSuiteC2Ev, symObjAddr: 0x2A44, symBinAddr: 0x100008E84, symSize: 0x68 }
  - { offsetInCU: 0xDF13, offset: 0x22885, size: 0x8, addend: 0x0, symName: __ZNSt3__13mapINS_12basic_stringIcNS_11char_traitsIcEENS_9allocatorIcEEEE8TestCaseNS_4lessIS6_EENS4_INS_4pairIKS6_S7_EEEEEC1B7v160006Ev, symObjAddr: 0x2AAC, symBinAddr: 0x100008EEC, symSize: 0x2C }
  - { offsetInCU: 0xDF45, offset: 0x228B7, size: 0x8, addend: 0x0, symName: __ZZN9TestSuiteC1EvENKUlvE_cvPFvvEEv, symObjAddr: 0x2AD8, symBinAddr: 0x100008F18, symSize: 0x18 }
  - { offsetInCU: 0xDF6F, offset: 0x228E1, size: 0x8, addend: 0x0, symName: __ZNSt3__13mapINS_12basic_stringIcNS_11char_traitsIcEENS_9allocatorIcEEEE8TestCaseNS_4lessIS6_EENS4_INS_4pairIKS6_S7_EEEEED1B7v160006Ev, symObjAddr: 0x2AF0, symBinAddr: 0x100008F30, symSize: 0x2C }
  - { offsetInCU: 0xDF97, offset: 0x22909, size: 0x8, addend: 0x0, symName: __ZNSt3__13mapINS_12basic_stringIcNS_11char_traitsIcEENS_9allocatorIcEEEE8TestCaseNS_4lessIS6_EENS4_INS_4pairIKS6_S7_EEEEEC2B7v160006Ev, symObjAddr: 0x2B1C, symBinAddr: 0x100008F5C, symSize: 0x40 }
  - { offsetInCU: 0xDFBF, offset: 0x22931, size: 0x8, addend: 0x0, symName: __ZNSt3__119__map_value_compareINS_12basic_stringIcNS_11char_traitsIcEENS_9allocatorIcEEEENS_12__value_typeIS6_8TestCaseEENS_4lessIS6_EELb1EEC1B7v160006ESB_, symObjAddr: 0x2B5C, symBinAddr: 0x100008F9C, symSize: 0x2C }
  - { offsetInCU: 0xDFF6, offset: 0x22968, size: 0x8, addend: 0x0, symName: __ZNSt3__16__treeINS_12__value_typeINS_12basic_stringIcNS_11char_traitsIcEENS_9allocatorIcEEEE8TestCaseEENS_19__map_value_compareIS7_S9_NS_4lessIS7_EELb1EEENS5_IS9_EEEC1ERKSD_, symObjAddr: 0x2B88, symBinAddr: 0x100008FC8, symSize: 0x34 }
  - { offsetInCU: 0xE030, offset: 0x229A2, size: 0x8, addend: 0x0, symName: __ZNSt3__119__map_value_compareINS_12basic_stringIcNS_11char_traitsIcEENS_9allocatorIcEEEENS_12__value_typeIS6_8TestCaseEENS_4lessIS6_EELb1EEC2B7v160006ESB_, symObjAddr: 0x2BBC, symBinAddr: 0x100008FFC, symSize: 0x14 }
  - { offsetInCU: 0xE068, offset: 0x229DA, size: 0x8, addend: 0x0, symName: __ZNSt3__16__treeINS_12__value_typeINS_12basic_stringIcNS_11char_traitsIcEENS_9allocatorIcEEEE8TestCaseEENS_19__map_value_compareIS7_S9_NS_4lessIS7_EELb1EEENS5_IS9_EEEC2ERKSD_, symObjAddr: 0x2BD0, symBinAddr: 0x100009010, symSize: 0x7C }
  - { offsetInCU: 0xE0A2, offset: 0x22A14, size: 0x8, addend: 0x0, symName: __ZNSt3__117__compressed_pairINS_15__tree_end_nodeIPNS_16__tree_node_baseIPvEEEENS_9allocatorINS_11__tree_nodeINS_12__value_typeINS_12basic_stringIcNS_11char_traitsIcEENS7_IcEEEE8TestCaseEES3_EEEEEC1B7v160006ILb1EvEEv, symObjAddr: 0x2C4C, symBinAddr: 0x10000908C, symSize: 0x2C }
  - { offsetInCU: 0xE0DA, offset: 0x22A4C, size: 0x8, addend: 0x0, symName: __ZNSt3__117__compressed_pairImNS_19__map_value_compareINS_12basic_stringIcNS_11char_traitsIcEENS_9allocatorIcEEEENS_12__value_typeIS7_8TestCaseEENS_4lessIS7_EELb1EEEEC1B7v160006IiRKSD_EEOT_OT0_, symObjAddr: 0x2C78, symBinAddr: 0x1000090B8, symSize: 0x3C }
  - { offsetInCU: 0xE130, offset: 0x22AA2, size: 0x8, addend: 0x0, symName: __ZNSt3__16__treeINS_12__value_typeINS_12basic_stringIcNS_11char_traitsIcEENS_9allocatorIcEEEE8TestCaseEENS_19__map_value_compareIS7_S9_NS_4lessIS7_EELb1EEENS5_IS9_EEE10__end_nodeB7v160006Ev, symObjAddr: 0x2CB4, symBinAddr: 0x1000090F4, symSize: 0x2C }
  - { offsetInCU: 0xE154, offset: 0x22AC6, size: 0x8, addend: 0x0, symName: __ZNSt3__16__treeINS_12__value_typeINS_12basic_stringIcNS_11char_traitsIcEENS_9allocatorIcEEEE8TestCaseEENS_19__map_value_compareIS7_S9_NS_4lessIS7_EELb1EEENS5_IS9_EEE12__begin_nodeB7v160006Ev, symObjAddr: 0x2CE0, symBinAddr: 0x100009120, symSize: 0x14 }
  - { offsetInCU: 0xE179, offset: 0x22AEB, size: 0x8, addend: 0x0, symName: __ZNSt3__117__compressed_pairINS_15__tree_end_nodeIPNS_16__tree_node_baseIPvEEEENS_9allocatorINS_11__tree_nodeINS_12__value_typeINS_12basic_stringIcNS_11char_traitsIcEENS7_IcEEEE8TestCaseEES3_EEEEEC2B7v160006ILb1EvEEv, symObjAddr: 0x2CF4, symBinAddr: 0x100009134, symSize: 0x34 }
  - { offsetInCU: 0xE1AC, offset: 0x22B1E, size: 0x8, addend: 0x0, symName: __ZNSt3__122__compressed_pair_elemINS_15__tree_end_nodeIPNS_16__tree_node_baseIPvEEEELi0ELb0EEC2B7v160006ENS_16__value_init_tagE, symObjAddr: 0x2D28, symBinAddr: 0x100009168, symSize: 0x2C }
  - { offsetInCU: 0xE1DF, offset: 0x22B51, size: 0x8, addend: 0x0, symName: __ZNSt3__122__compressed_pair_elemINS_9allocatorINS_11__tree_nodeINS_12__value_typeINS_12basic_stringIcNS_11char_traitsIcEENS1_IcEEEE8TestCaseEEPvEEEELi1ELb1EEC2B7v160006ENS_16__value_init_tagE, symObjAddr: 0x2D54, symBinAddr: 0x100009194, symSize: 0x2C }
  - { offsetInCU: 0xE212, offset: 0x22B84, size: 0x8, addend: 0x0, symName: __ZNSt3__115__tree_end_nodeIPNS_16__tree_node_baseIPvEEEC1B7v160006Ev, symObjAddr: 0x2D80, symBinAddr: 0x1000091C0, symSize: 0x2C }
  - { offsetInCU: 0xE23A, offset: 0x22BAC, size: 0x8, addend: 0x0, symName: __ZNSt3__115__tree_end_nodeIPNS_16__tree_node_baseIPvEEEC2B7v160006Ev, symObjAddr: 0x2DAC, symBinAddr: 0x1000091EC, symSize: 0x18 }
  - { offsetInCU: 0xE263, offset: 0x22BD5, size: 0x8, addend: 0x0, symName: __ZNSt3__19allocatorINS_11__tree_nodeINS_12__value_typeINS_12basic_stringIcNS_11char_traitsIcEENS0_IcEEEE8TestCaseEEPvEEEC2B7v160006Ev, symObjAddr: 0x2DC4, symBinAddr: 0x100009204, symSize: 0x2C }
  - { offsetInCU: 0xE28B, offset: 0x22BFD, size: 0x8, addend: 0x0, symName: __ZNSt3__116__non_trivial_ifILb1ENS_9allocatorINS_11__tree_nodeINS_12__value_typeINS_12basic_stringIcNS_11char_traitsIcEENS1_IcEEEE8TestCaseEEPvEEEEEC2B7v160006Ev, symObjAddr: 0x2DF0, symBinAddr: 0x100009230, symSize: 0x14 }
  - { offsetInCU: 0xE2B4, offset: 0x22C26, size: 0x8, addend: 0x0, symName: __ZNSt3__117__compressed_pairImNS_19__map_value_compareINS_12basic_stringIcNS_11char_traitsIcEENS_9allocatorIcEEEENS_12__value_typeIS7_8TestCaseEENS_4lessIS7_EELb1EEEEC2B7v160006IiRKSD_EEOT_OT0_, symObjAddr: 0x2E04, symBinAddr: 0x100009244, symSize: 0x44 }
  - { offsetInCU: 0xE30A, offset: 0x22C7C, size: 0x8, addend: 0x0, symName: __ZNSt3__122__compressed_pair_elemImLi0ELb0EEC2B7v160006IivEEOT_, symObjAddr: 0x2E48, symBinAddr: 0x100009288, symSize: 0x24 }
  - { offsetInCU: 0xE34B, offset: 0x22CBD, size: 0x8, addend: 0x0, symName: __ZNSt3__122__compressed_pair_elemINS_19__map_value_compareINS_12basic_stringIcNS_11char_traitsIcEENS_9allocatorIcEEEENS_12__value_typeIS7_8TestCaseEENS_4lessIS7_EELb1EEELi1ELb1EEC2B7v160006IRKSD_vEEOT_, symObjAddr: 0x2E6C, symBinAddr: 0x1000092AC, symSize: 0x18 }
  - { offsetInCU: 0xE38C, offset: 0x22CFE, size: 0x8, addend: 0x0, symName: __ZNSt3__114pointer_traitsIPNS_15__tree_end_nodeIPNS_16__tree_node_baseIPvEEEEE10pointer_toB7v160006ERS6_, symObjAddr: 0x2E84, symBinAddr: 0x1000092C4, symSize: 0x14 }
  - { offsetInCU: 0xE3AF, offset: 0x22D21, size: 0x8, addend: 0x0, symName: __ZNSt3__117__compressed_pairINS_15__tree_end_nodeIPNS_16__tree_node_baseIPvEEEENS_9allocatorINS_11__tree_nodeINS_12__value_typeINS_12basic_stringIcNS_11char_traitsIcEENS7_IcEEEE8TestCaseEES3_EEEEE5firstB7v160006Ev, symObjAddr: 0x2E98, symBinAddr: 0x1000092D8, symSize: 0x24 }
  - { offsetInCU: 0xE3D3, offset: 0x22D45, size: 0x8, addend: 0x0, symName: __ZNSt3__122__compressed_pair_elemINS_15__tree_end_nodeIPNS_16__tree_node_baseIPvEEEELi0ELb0EE5__getB7v160006Ev, symObjAddr: 0x2EBC, symBinAddr: 0x1000092FC, symSize: 0x14 }
  - { offsetInCU: 0xE3F8, offset: 0x22D6A, size: 0x8, addend: 0x0, symName: __ZZN9TestSuiteC1EvENUlvE_8__invokeEv, symObjAddr: 0x2ED0, symBinAddr: 0x100009310, symSize: 0x20 }
  - { offsetInCU: 0xE412, offset: 0x22D84, size: 0x8, addend: 0x0, symName: __ZZN9TestSuiteC1EvENKUlvE_clEv, symObjAddr: 0x2EF0, symBinAddr: 0x100009330, symSize: 0x50 }
  - { offsetInCU: 0xE43A, offset: 0x22DAC, size: 0x8, addend: 0x0, symName: __ZNSt3__13mapINS_12basic_stringIcNS_11char_traitsIcEENS_9allocatorIcEEEE8TestCaseNS_4lessIS6_EENS4_INS_4pairIKS6_S7_EEEEED2B7v160006Ev, symObjAddr: 0x2F40, symBinAddr: 0x100009380, symSize: 0x2C }
  - { offsetInCU: 0xE462, offset: 0x22DD4, size: 0x8, addend: 0x0, symName: __ZNSt3__16__treeINS_12__value_typeINS_12basic_stringIcNS_11char_traitsIcEENS_9allocatorIcEEEE8TestCaseEENS_19__map_value_compareIS7_S9_NS_4lessIS7_EELb1EEENS5_IS9_EEED1Ev, symObjAddr: 0x2F6C, symBinAddr: 0x1000093AC, symSize: 0x2C }
  - { offsetInCU: 0xE48D, offset: 0x22DFF, size: 0x8, addend: 0x0, symName: __ZNSt3__16__treeINS_12__value_typeINS_12basic_stringIcNS_11char_traitsIcEENS_9allocatorIcEEEE8TestCaseEENS_19__map_value_compareIS7_S9_NS_4lessIS7_EELb1EEENS5_IS9_EEED2Ev, symObjAddr: 0x2F98, symBinAddr: 0x1000093D8, symSize: 0x38 }
  - { offsetInCU: 0xE4B8, offset: 0x22E2A, size: 0x8, addend: 0x0, symName: __ZNSt3__16__treeINS_12__value_typeINS_12basic_stringIcNS_11char_traitsIcEENS_9allocatorIcEEEE8TestCaseEENS_19__map_value_compareIS7_S9_NS_4lessIS7_EELb1EEENS5_IS9_EEE7destroyEPNS_11__tree_nodeIS9_PvEE, symObjAddr: 0x2FD0, symBinAddr: 0x100009410, symSize: 0xAC }
  - { offsetInCU: 0xE503, offset: 0x22E75, size: 0x8, addend: 0x0, symName: __ZNKSt3__16__treeINS_12__value_typeINS_12basic_stringIcNS_11char_traitsIcEENS_9allocatorIcEEEE8TestCaseEENS_19__map_value_compareIS7_S9_NS_4lessIS7_EELb1EEENS5_IS9_EEE6__rootB7v160006Ev, symObjAddr: 0x307C, symBinAddr: 0x1000094BC, symSize: 0x28 }
  - { offsetInCU: 0xE527, offset: 0x22E99, size: 0x8, addend: 0x0, symName: __ZNSt3__16__treeINS_12__value_typeINS_12basic_stringIcNS_11char_traitsIcEENS_9allocatorIcEEEE8TestCaseEENS_19__map_value_compareIS7_S9_NS_4lessIS7_EELb1EEENS5_IS9_EEE12__node_allocB7v160006Ev, symObjAddr: 0x30A4, symBinAddr: 0x1000094E4, symSize: 0x28 }
  - { offsetInCU: 0xE54B, offset: 0x22EBD, size: 0x8, addend: 0x0, symName: __ZNSt3__116allocator_traitsINS_9allocatorINS_11__tree_nodeINS_12__value_typeINS_12basic_stringIcNS_11char_traitsIcEENS1_IcEEEE8TestCaseEEPvEEEEE7destroyB7v160006INS_4pairIKS8_S9_EEvvEEvRSD_PT_, symObjAddr: 0x30CC, symBinAddr: 0x10000950C, symSize: 0x28 }
  - { offsetInCU: 0xE586, offset: 0x22EF8, size: 0x8, addend: 0x0, symName: __ZNSt3__122__tree_key_value_typesINS_12__value_typeINS_12basic_stringIcNS_11char_traitsIcEENS_9allocatorIcEEEE8TestCaseEEE9__get_ptrB7v160006ERS9_, symObjAddr: 0x30F4, symBinAddr: 0x100009534, symSize: 0x24 }
  - { offsetInCU: 0xE5AA, offset: 0x22F1C, size: 0x8, addend: 0x0, symName: __ZNSt3__116allocator_traitsINS_9allocatorINS_11__tree_nodeINS_12__value_typeINS_12basic_stringIcNS_11char_traitsIcEENS1_IcEEEE8TestCaseEEPvEEEEE10deallocateB7v160006ERSD_PSC_m, symObjAddr: 0x3118, symBinAddr: 0x100009558, symSize: 0x34 }
  - { offsetInCU: 0xE5EC, offset: 0x22F5E, size: 0x8, addend: 0x0, symName: __ZNSt3__117__compressed_pairINS_15__tree_end_nodeIPNS_16__tree_node_baseIPvEEEENS_9allocatorINS_11__tree_nodeINS_12__value_typeINS_12basic_stringIcNS_11char_traitsIcEENS7_IcEEEE8TestCaseEES3_EEEEE6secondB7v160006Ev, symObjAddr: 0x314C, symBinAddr: 0x10000958C, symSize: 0x24 }
  - { offsetInCU: 0xE610, offset: 0x22F82, size: 0x8, addend: 0x0, symName: __ZNSt3__122__compressed_pair_elemINS_9allocatorINS_11__tree_nodeINS_12__value_typeINS_12basic_stringIcNS_11char_traitsIcEENS1_IcEEEE8TestCaseEEPvEEEELi1ELb1EE5__getB7v160006Ev, symObjAddr: 0x3170, symBinAddr: 0x1000095B0, symSize: 0x14 }
  - { offsetInCU: 0xE635, offset: 0x22FA7, size: 0x8, addend: 0x0, symName: __ZNSt3__14pairIKNS_12basic_stringIcNS_11char_traitsIcEENS_9allocatorIcEEEE8TestCaseED1Ev, symObjAddr: 0x3184, symBinAddr: 0x1000095C4, symSize: 0x2C }
  - { offsetInCU: 0xE660, offset: 0x22FD2, size: 0x8, addend: 0x0, symName: __ZNSt3__14pairIKNS_12basic_stringIcNS_11char_traitsIcEENS_9allocatorIcEEEE8TestCaseED2Ev, symObjAddr: 0x31B0, symBinAddr: 0x1000095F0, symSize: 0x38 }
  - { offsetInCU: 0xE68B, offset: 0x22FFD, size: 0x8, addend: 0x0, symName: __ZN8TestCaseD1Ev, symObjAddr: 0x31E8, symBinAddr: 0x100009628, symSize: 0x2C }
  - { offsetInCU: 0xE6B6, offset: 0x23028, size: 0x8, addend: 0x0, symName: __ZN8TestCaseD2Ev, symObjAddr: 0x3214, symBinAddr: 0x100009654, symSize: 0x44 }
  - { offsetInCU: 0xE6E1, offset: 0x23053, size: 0x8, addend: 0x0, symName: __ZNSt3__112__value_typeINS_12basic_stringIcNS_11char_traitsIcEENS_9allocatorIcEEEE8TestCaseE11__get_valueB7v160006Ev, symObjAddr: 0x3258, symBinAddr: 0x100009698, symSize: 0x24 }
  - { offsetInCU: 0xE705, offset: 0x23077, size: 0x8, addend: 0x0, symName: __ZNSt3__19allocatorINS_11__tree_nodeINS_12__value_typeINS_12basic_stringIcNS_11char_traitsIcEENS0_IcEEEE8TestCaseEEPvEEE10deallocateB7v160006EPSB_m, symObjAddr: 0x32B4, symBinAddr: 0x1000096F4, symSize: 0x44 }
  - { offsetInCU: 0xE745, offset: 0x230B7, size: 0x8, addend: 0x0, symName: __ZNKSt3__16__treeINS_12__value_typeINS_12basic_stringIcNS_11char_traitsIcEENS_9allocatorIcEEEE8TestCaseEENS_19__map_value_compareIS7_S9_NS_4lessIS7_EELb1EEENS5_IS9_EEE10__end_nodeB7v160006Ev, symObjAddr: 0x3420, symBinAddr: 0x100009738, symSize: 0x2C }
  - { offsetInCU: 0xE769, offset: 0x230DB, size: 0x8, addend: 0x0, symName: __ZNKSt3__117__compressed_pairINS_15__tree_end_nodeIPNS_16__tree_node_baseIPvEEEENS_9allocatorINS_11__tree_nodeINS_12__value_typeINS_12basic_stringIcNS_11char_traitsIcEENS7_IcEEEE8TestCaseEES3_EEEEE5firstB7v160006Ev, symObjAddr: 0x344C, symBinAddr: 0x100009764, symSize: 0x24 }
  - { offsetInCU: 0xE78D, offset: 0x230FF, size: 0x8, addend: 0x0, symName: __ZNKSt3__122__compressed_pair_elemINS_15__tree_end_nodeIPNS_16__tree_node_baseIPvEEEELi0ELb0EE5__getB7v160006Ev, symObjAddr: 0x3470, symBinAddr: 0x100009788, symSize: 0x14 }
  - { offsetInCU: 0xE7B2, offset: 0x23124, size: 0x8, addend: 0x0, symName: __ZNKSt3__114__map_iteratorINS_15__tree_iteratorINS_12__value_typeINS_12basic_stringIcNS_11char_traitsIcEENS_9allocatorIcEEEE8TestCaseEEPNS_11__tree_nodeISA_PvEElEEEdeB7v160006Ev, symObjAddr: 0x34B4, symBinAddr: 0x1000097CC, symSize: 0x28 }
  - { offsetInCU: 0xE7D6, offset: 0x23148, size: 0x8, addend: 0x0, symName: __ZNSt3__114__map_iteratorINS_15__tree_iteratorINS_12__value_typeINS_12basic_stringIcNS_11char_traitsIcEENS_9allocatorIcEEEE8TestCaseEEPNS_11__tree_nodeISA_PvEElEEEppB7v160006Ev, symObjAddr: 0x34DC, symBinAddr: 0x1000097F4, symSize: 0x2C }
  - { offsetInCU: 0xE7FA, offset: 0x2316C, size: 0x8, addend: 0x0, symName: __ZNKSt3__115__tree_iteratorINS_12__value_typeINS_12basic_stringIcNS_11char_traitsIcEENS_9allocatorIcEEEE8TestCaseEEPNS_11__tree_nodeIS9_PvEElEptB7v160006Ev, symObjAddr: 0x356C, symBinAddr: 0x100009884, symSize: 0x2C }
  - { offsetInCU: 0xE81E, offset: 0x23190, size: 0x8, addend: 0x0, symName: __ZNSt3__114pointer_traitsIPNS_12__value_typeINS_12basic_stringIcNS_11char_traitsIcEENS_9allocatorIcEEEE8TestCaseEEE10pointer_toB7v160006ERS9_, symObjAddr: 0x3598, symBinAddr: 0x1000098B0, symSize: 0x14 }
  - { offsetInCU: 0xE841, offset: 0x231B3, size: 0x8, addend: 0x0, symName: __ZNKSt3__115__tree_iteratorINS_12__value_typeINS_12basic_stringIcNS_11char_traitsIcEENS_9allocatorIcEEEE8TestCaseEEPNS_11__tree_nodeIS9_PvEElE8__get_npB7v160006Ev, symObjAddr: 0x35AC, symBinAddr: 0x1000098C4, symSize: 0x18 }
  - { offsetInCU: 0xE866, offset: 0x231D8, size: 0x8, addend: 0x0, symName: __ZNSt3__115__tree_iteratorINS_12__value_typeINS_12basic_stringIcNS_11char_traitsIcEENS_9allocatorIcEEEE8TestCaseEEPNS_11__tree_nodeIS9_PvEElEppB7v160006Ev, symObjAddr: 0x35C4, symBinAddr: 0x1000098DC, symSize: 0x38 }
  - { offsetInCU: 0xE88A, offset: 0x231FC, size: 0x8, addend: 0x0, symName: __ZNKSt3__116__tree_node_baseIPvE15__parent_unsafeB7v160006Ev, symObjAddr: 0x36F8, symBinAddr: 0x100009A10, symSize: 0x18 }
  - { offsetInCU: 0xE8AF, offset: 0x23221, size: 0x8, addend: 0x0, symName: __ZN9ExitSuiteC2Ei, symObjAddr: 0x3710, symBinAddr: 0x100009A28, symSize: 0x50 }
  - { offsetInCU: 0xE8E6, offset: 0x23258, size: 0x8, addend: 0x0, symName: __ZNSt9exceptionC2B7v160006Ev, symObjAddr: 0x3760, symBinAddr: 0x100009A78, symSize: 0x24 }
  - { offsetInCU: 0xE90F, offset: 0x23281, size: 0x8, addend: 0x0, symName: __ZN9ExitSuiteD0Ev, symObjAddr: 0x3784, symBinAddr: 0x100009A9C, symSize: 0x30 }
  - { offsetInCU: 0xE93B, offset: 0x232AD, size: 0x8, addend: 0x0, symName: __ZN9ExitSuiteD2Ev, symObjAddr: 0x37B4, symBinAddr: 0x100009ACC, symSize: 0x2C }
  - { offsetInCU: 0xE967, offset: 0x232D9, size: 0x8, addend: 0x0, symName: __ZN11TestFailureC2ENSt3__112basic_stringIcNS0_11char_traitsIcEENS0_9allocatorIcEEEEiPKc, symObjAddr: 0x37E0, symBinAddr: 0x100009AF8, symSize: 0x4C }
  - { offsetInCU: 0xE9BA, offset: 0x2332C, size: 0x8, addend: 0x0, symName: __ZNSt3__112basic_stringIcNS_11char_traitsIcEENS_9allocatorIcEEEC1B7v160006EOS5_, symObjAddr: 0x382C, symBinAddr: 0x100009B44, symSize: 0x34 }
  - { offsetInCU: 0xE9F1, offset: 0x23363, size: 0x8, addend: 0x0, symName: __ZNSt3__112basic_stringIcNS_11char_traitsIcEENS_9allocatorIcEEEC2B7v160006EOS5_, symObjAddr: 0x3860, symBinAddr: 0x100009B78, symSize: 0x88 }
  - { offsetInCU: 0xEA28, offset: 0x2339A, size: 0x8, addend: 0x0, symName: __ZN11TestFailureD2Ev, symObjAddr: 0x39F4, symBinAddr: 0x100009C14, symSize: 0x2C }
  - { offsetInCU: 0xEA53, offset: 0x233C5, size: 0x8, addend: 0x0, symName: __ZN14TestRegistererC2ERKNSt3__112basic_stringIcNS0_11char_traitsIcEENS0_9allocatorIcEEEEPFvvE, symObjAddr: 0x3A20, symBinAddr: 0x100009C40, symSize: 0x40 }
  - { offsetInCU: 0xEA97, offset: 0x23409, size: 0x8, addend: 0x0, symName: __ZN9TestSuite8add_testERKNSt3__112basic_stringIcNS0_11char_traitsIcEENS0_9allocatorIcEEEEPFvvE, symObjAddr: 0x3A60, symBinAddr: 0x100009C80, symSize: 0xD8 }
  - { offsetInCU: 0xEAD7, offset: 0x23449, size: 0x8, addend: 0x0, symName: __ZNSt3__13mapINS_12basic_stringIcNS_11char_traitsIcEENS_9allocatorIcEEEE8TestCaseNS_4lessIS6_EENS4_INS_4pairIKS6_S7_EEEEE6insertB7v160006EOSC_, symObjAddr: 0x3B38, symBinAddr: 0x100009D58, symSize: 0x4C }
  - { offsetInCU: 0xEB0A, offset: 0x2347C, size: 0x8, addend: 0x0, symName: __ZN8TestCaseC1ERKNSt3__112basic_stringIcNS0_11char_traitsIcEENS0_9allocatorIcEEEEPFvvE, symObjAddr: 0x3B84, symBinAddr: 0x100009DA4, symSize: 0x3C }
  - { offsetInCU: 0xEB53, offset: 0x234C5, size: 0x8, addend: 0x0, symName: __ZNSt3__14pairIKNS_12basic_stringIcNS_11char_traitsIcEENS_9allocatorIcEEEE8TestCaseEC1B7v160006IRS7_S8_LPv0EEEOT_OT0_, symObjAddr: 0x3BC0, symBinAddr: 0x100009DE0, symSize: 0x3C }
  - { offsetInCU: 0xEBB0, offset: 0x23522, size: 0x8, addend: 0x0, symName: __ZNSt3__16__treeINS_12__value_typeINS_12basic_stringIcNS_11char_traitsIcEENS_9allocatorIcEEEE8TestCaseEENS_19__map_value_compareIS7_S9_NS_4lessIS7_EELb1EEENS5_IS9_EEE15__insert_uniqueB7v160006EONS_4pairIKS7_S8_EE, symObjAddr: 0x3BFC, symBinAddr: 0x100009E1C, symSize: 0x50 }
  - { offsetInCU: 0xEBE3, offset: 0x23555, size: 0x8, addend: 0x0, symName: __ZNSt3__14pairINS_14__map_iteratorINS_15__tree_iteratorINS_12__value_typeINS_12basic_stringIcNS_11char_traitsIcEENS_9allocatorIcEEEE8TestCaseEEPNS_11__tree_nodeISB_PvEElEEEEbEC1B7v160006ISG_bLSD_0EEEONS0_IT_T0_EE, symObjAddr: 0x3C4C, symBinAddr: 0x100009E6C, symSize: 0x34 }
  - { offsetInCU: 0xEC33, offset: 0x235A5, size: 0x8, addend: 0x0, symName: __ZNSt3__16__treeINS_12__value_typeINS_12basic_stringIcNS_11char_traitsIcEENS_9allocatorIcEEEE8TestCaseEENS_19__map_value_compareIS7_S9_NS_4lessIS7_EELb1EEENS5_IS9_EEE25__emplace_unique_key_argsIS7_JNS_4pairIKS7_S8_EEEEENSH_INS_15__tree_iteratorIS9_PNS_11__tree_nodeIS9_PvEElEEbEERKT_DpOT0_, symObjAddr: 0x3C80, symBinAddr: 0x100009EA0, symSize: 0xF0 }
  - { offsetInCU: 0xECE0, offset: 0x23652, size: 0x8, addend: 0x0, symName: __ZNSt3__122__tree_key_value_typesINS_12__value_typeINS_12basic_stringIcNS_11char_traitsIcEENS_9allocatorIcEEEE8TestCaseEEE9__get_keyB7v160006INS_4pairIKS7_S8_EEEENS_9enable_ifIXsr17__is_same_uncvrefIT_SE_EE5valueERSD_E4typeERSG_, symObjAddr: 0x3D70, symBinAddr: 0x100009F90, symSize: 0x14 }
  - { offsetInCU: 0xED0D, offset: 0x2367F, size: 0x8, addend: 0x0, symName: __ZNSt3__16__treeINS_12__value_typeINS_12basic_stringIcNS_11char_traitsIcEENS_9allocatorIcEEEE8TestCaseEENS_19__map_value_compareIS7_S9_NS_4lessIS7_EELb1EEENS5_IS9_EEE12__find_equalIS7_EERPNS_16__tree_node_baseIPvEERPNS_15__tree_end_nodeISK_EERKT_, symObjAddr: 0x3D84, symBinAddr: 0x100009FA4, symSize: 0x184 }
  - { offsetInCU: 0xED79, offset: 0x236EB, size: 0x8, addend: 0x0, symName: __ZNSt3__16__treeINS_12__value_typeINS_12basic_stringIcNS_11char_traitsIcEENS_9allocatorIcEEEE8TestCaseEENS_19__map_value_compareIS7_S9_NS_4lessIS7_EELb1EEENS5_IS9_EEE16__construct_nodeIJNS_4pairIKS7_S8_EEEEENS_10unique_ptrINS_11__tree_nodeIS9_PvEENS_22__tree_node_destructorINS5_ISN_EEEEEEDpOT_, symObjAddr: 0x3F08, symBinAddr: 0x10000A128, symSize: 0x110 }
  - { offsetInCU: 0xEDDB, offset: 0x2374D, size: 0x8, addend: 0x0, symName: __ZNSt3__16__treeINS_12__value_typeINS_12basic_stringIcNS_11char_traitsIcEENS_9allocatorIcEEEE8TestCaseEENS_19__map_value_compareIS7_S9_NS_4lessIS7_EELb1EEENS5_IS9_EEE16__insert_node_atEPNS_15__tree_end_nodeIPNS_16__tree_node_baseIPvEEEERSK_SK_, symObjAddr: 0x4018, symBinAddr: 0x10000A238, symSize: 0xCC }
  - { offsetInCU: 0xEE2F, offset: 0x237A1, size: 0x8, addend: 0x0, symName: __ZNKSt3__110unique_ptrINS_11__tree_nodeINS_12__value_typeINS_12basic_stringIcNS_11char_traitsIcEENS_9allocatorIcEEEE8TestCaseEEPvEENS_22__tree_node_destructorINS6_ISC_EEEEE3getB7v160006Ev, symObjAddr: 0x40E4, symBinAddr: 0x10000A304, symSize: 0x28 }
  - { offsetInCU: 0xEE53, offset: 0x237C5, size: 0x8, addend: 0x0, symName: __ZNSt3__110unique_ptrINS_11__tree_nodeINS_12__value_typeINS_12basic_stringIcNS_11char_traitsIcEENS_9allocatorIcEEEE8TestCaseEEPvEENS_22__tree_node_destructorINS6_ISC_EEEEE7releaseB7v160006Ev, symObjAddr: 0x410C, symBinAddr: 0x10000A32C, symSize: 0x44 }
  - { offsetInCU: 0xEE86, offset: 0x237F8, size: 0x8, addend: 0x0, symName: __ZNSt3__110unique_ptrINS_11__tree_nodeINS_12__value_typeINS_12basic_stringIcNS_11char_traitsIcEENS_9allocatorIcEEEE8TestCaseEEPvEENS_22__tree_node_destructorINS6_ISC_EEEEED1B7v160006Ev, symObjAddr: 0x4150, symBinAddr: 0x10000A370, symSize: 0x2C }
  - { offsetInCU: 0xEEAE, offset: 0x23820, size: 0x8, addend: 0x0, symName: __ZNSt3__115__tree_iteratorINS_12__value_typeINS_12basic_stringIcNS_11char_traitsIcEENS_9allocatorIcEEEE8TestCaseEEPNS_11__tree_nodeIS9_PvEElEC1B7v160006ESD_, symObjAddr: 0x417C, symBinAddr: 0x10000A39C, symSize: 0x34 }
  - { offsetInCU: 0xEEEA, offset: 0x2385C, size: 0x8, addend: 0x0, symName: __ZNSt3__14pairINS_15__tree_iteratorINS_12__value_typeINS_12basic_stringIcNS_11char_traitsIcEENS_9allocatorIcEEEE8TestCaseEEPNS_11__tree_nodeISA_PvEElEEbEC1B7v160006ISF_RbLSC_0EEEOT_OT0_, symObjAddr: 0x41B0, symBinAddr: 0x10000A3D0, symSize: 0x3C }
  - { offsetInCU: 0xEF47, offset: 0x238B9, size: 0x8, addend: 0x0, symName: __ZNKSt3__16__treeINS_12__value_typeINS_12basic_stringIcNS_11char_traitsIcEENS_9allocatorIcEEEE8TestCaseEENS_19__map_value_compareIS7_S9_NS_4lessIS7_EELb1EEENS5_IS9_EEE10__root_ptrEv, symObjAddr: 0x41EC, symBinAddr: 0x10000A40C, symSize: 0x24 }
  - { offsetInCU: 0xEF6B, offset: 0x238DD, size: 0x8, addend: 0x0, symName: __ZNSt3__16__treeINS_12__value_typeINS_12basic_stringIcNS_11char_traitsIcEENS_9allocatorIcEEEE8TestCaseEENS_19__map_value_compareIS7_S9_NS_4lessIS7_EELb1EEENS5_IS9_EEE10value_compB7v160006Ev, symObjAddr: 0x4210, symBinAddr: 0x10000A430, symSize: 0x28 }
  - { offsetInCU: 0xEF8F, offset: 0x23901, size: 0x8, addend: 0x0, symName: __ZNKSt3__119__map_value_compareINS_12basic_stringIcNS_11char_traitsIcEENS_9allocatorIcEEEENS_12__value_typeIS6_8TestCaseEENS_4lessIS6_EELb1EEclB7v160006ERKS6_RKS9_, symObjAddr: 0x4238, symBinAddr: 0x10000A458, symSize: 0x50 }
  - { offsetInCU: 0xEFD1, offset: 0x23943, size: 0x8, addend: 0x0, symName: __ZNKSt3__119__map_value_compareINS_12basic_stringIcNS_11char_traitsIcEENS_9allocatorIcEEEENS_12__value_typeIS6_8TestCaseEENS_4lessIS6_EELb1EEclB7v160006ERKS9_RKS6_, symObjAddr: 0x4288, symBinAddr: 0x10000A4A8, symSize: 0x48 }
  - { offsetInCU: 0xF013, offset: 0x23985, size: 0x8, addend: 0x0, symName: __ZNSt3__117__compressed_pairImNS_19__map_value_compareINS_12basic_stringIcNS_11char_traitsIcEENS_9allocatorIcEEEENS_12__value_typeIS7_8TestCaseEENS_4lessIS7_EELb1EEEE6secondB7v160006Ev, symObjAddr: 0x42D0, symBinAddr: 0x10000A4F0, symSize: 0x24 }
  - { offsetInCU: 0xF037, offset: 0x239A9, size: 0x8, addend: 0x0, symName: __ZNSt3__122__compressed_pair_elemINS_19__map_value_compareINS_12basic_stringIcNS_11char_traitsIcEENS_9allocatorIcEEEENS_12__value_typeIS7_8TestCaseEENS_4lessIS7_EELb1EEELi1ELb1EE5__getB7v160006Ev, symObjAddr: 0x42F4, symBinAddr: 0x10000A514, symSize: 0x14 }
  - { offsetInCU: 0xF05C, offset: 0x239CE, size: 0x8, addend: 0x0, symName: __ZNKSt3__14lessINS_12basic_stringIcNS_11char_traitsIcEENS_9allocatorIcEEEEEclB7v160006ERKS6_S9_, symObjAddr: 0x4308, symBinAddr: 0x10000A528, symSize: 0x34 }
  - { offsetInCU: 0xF09E, offset: 0x23A10, size: 0x8, addend: 0x0, symName: __ZNKSt3__112__value_typeINS_12basic_stringIcNS_11char_traitsIcEENS_9allocatorIcEEEE8TestCaseE11__get_valueB7v160006Ev, symObjAddr: 0x433C, symBinAddr: 0x10000A55C, symSize: 0x24 }
  - { offsetInCU: 0xF0C2, offset: 0x23A34, size: 0x8, addend: 0x0, symName: __ZNKSt3__112basic_stringIcNS_11char_traitsIcEENS_9allocatorIcEEE7compareB7v160006ERKS5_, symObjAddr: 0x4398, symBinAddr: 0x10000A5B8, symSize: 0x4C }
  - { offsetInCU: 0xF0F8, offset: 0x23A6A, size: 0x8, addend: 0x0, symName: __ZNKSt3__112basic_stringIcNS_11char_traitsIcEENS_9allocatorIcEEE7compareINS_17basic_string_viewIcS2_EEEENS_9enable_ifIXsr33__can_be_converted_to_string_viewIcS2_T_EE5valueEiE4typeERKSA_, symObjAddr: 0x43E4, symBinAddr: 0x10000A604, symSize: 0x12C }
  - { offsetInCU: 0xF174, offset: 0x23AE6, size: 0x8, addend: 0x0, symName: __ZNKSt3__112basic_stringIcNS_11char_traitsIcEENS_9allocatorIcEEEcvNS_17basic_string_viewIcS2_EEB7v160006Ev, symObjAddr: 0x4510, symBinAddr: 0x10000A730, symSize: 0x50 }
  - { offsetInCU: 0xF198, offset: 0x23B0A, size: 0x8, addend: 0x0, symName: __ZNKSt3__117basic_string_viewIcNS_11char_traitsIcEEE4sizeB7v160006Ev, symObjAddr: 0x45B4, symBinAddr: 0x10000A780, symSize: 0x18 }
  - { offsetInCU: 0xF1BD, offset: 0x23B2F, size: 0x8, addend: 0x0, symName: __ZNSt3__111char_traitsIcE7compareEPKcS3_m, symObjAddr: 0x45CC, symBinAddr: 0x10000A798, symSize: 0x6C }
  - { offsetInCU: 0xF1FC, offset: 0x23B6E, size: 0x8, addend: 0x0, symName: __ZNKSt3__112basic_stringIcNS_11char_traitsIcEENS_9allocatorIcEEE4dataB7v160006Ev, symObjAddr: 0x4638, symBinAddr: 0x10000A804, symSize: 0x28 }
  - { offsetInCU: 0xF220, offset: 0x23B92, size: 0x8, addend: 0x0, symName: __ZNKSt3__117basic_string_viewIcNS_11char_traitsIcEEE4dataB7v160006Ev, symObjAddr: 0x4660, symBinAddr: 0x10000A82C, symSize: 0x18 }
  - { offsetInCU: 0xF245, offset: 0x23BB7, size: 0x8, addend: 0x0, symName: __ZNKSt3__112basic_stringIcNS_11char_traitsIcEENS_9allocatorIcEEE13__get_pointerB7v160006Ev, symObjAddr: 0x4748, symBinAddr: 0x10000A88C, symSize: 0x54 }
  - { offsetInCU: 0xF269, offset: 0x23BDB, size: 0x8, addend: 0x0, symName: __ZNKSt3__112basic_stringIcNS_11char_traitsIcEENS_9allocatorIcEEE18__get_long_pointerB7v160006Ev, symObjAddr: 0x479C, symBinAddr: 0x10000A8E0, symSize: 0x28 }
  - { offsetInCU: 0xF28D, offset: 0x23BFF, size: 0x8, addend: 0x0, symName: __ZNKSt3__112basic_stringIcNS_11char_traitsIcEENS_9allocatorIcEEE19__get_short_pointerB7v160006Ev, symObjAddr: 0x47C4, symBinAddr: 0x10000A908, symSize: 0x28 }
  - { offsetInCU: 0xF2B1, offset: 0x23C23, size: 0x8, addend: 0x0, symName: __ZNSt3__114pointer_traitsIPKcE10pointer_toB7v160006ERS1_, symObjAddr: 0x47EC, symBinAddr: 0x10000A930, symSize: 0x14 }
  - { offsetInCU: 0xF2D4, offset: 0x23C46, size: 0x8, addend: 0x0, symName: __ZNSt3__117basic_string_viewIcNS_11char_traitsIcEEEC1B7v160006EPKcm, symObjAddr: 0x4888, symBinAddr: 0x10000A944, symSize: 0x3C }
  - { offsetInCU: 0xF31A, offset: 0x23C8C, size: 0x8, addend: 0x0, symName: __ZNSt3__117basic_string_viewIcNS_11char_traitsIcEEEC2B7v160006EPKcm, symObjAddr: 0x48C4, symBinAddr: 0x10000A980, symSize: 0x50 }
  - { offsetInCU: 0xF361, offset: 0x23CD3, size: 0x8, addend: 0x0, symName: __ZNSt3__116allocator_traitsINS_9allocatorINS_11__tree_nodeINS_12__value_typeINS_12basic_stringIcNS_11char_traitsIcEENS1_IcEEEE8TestCaseEEPvEEEEE8allocateB7v160006ERSD_m, symObjAddr: 0x494C, symBinAddr: 0x10000AA08, symSize: 0x2C }
  - { offsetInCU: 0xF394, offset: 0x23D06, size: 0x8, addend: 0x0, symName: __ZNSt3__122__tree_node_destructorINS_9allocatorINS_11__tree_nodeINS_12__value_typeINS_12basic_stringIcNS_11char_traitsIcEENS1_IcEEEE8TestCaseEEPvEEEEEC1B7v160006ERSD_b, symObjAddr: 0x4978, symBinAddr: 0x10000AA34, symSize: 0x48 }
  - { offsetInCU: 0xF3DF, offset: 0x23D51, size: 0x8, addend: 0x0, symName: __ZNSt3__110unique_ptrINS_11__tree_nodeINS_12__value_typeINS_12basic_stringIcNS_11char_traitsIcEENS_9allocatorIcEEEE8TestCaseEEPvEENS_22__tree_node_destructorINS6_ISC_EEEEEC1B7v160006ILb1EvEEPSC_NS_16__dependent_typeINS_27__unique_ptr_deleter_sfinaeISF_EEXT_EE20__good_rval_ref_typeE, symObjAddr: 0x49C0, symBinAddr: 0x10000AA7C, symSize: 0x3C }
  - { offsetInCU: 0xF42E, offset: 0x23DA0, size: 0x8, addend: 0x0, symName: __ZNSt3__116allocator_traitsINS_9allocatorINS_11__tree_nodeINS_12__value_typeINS_12basic_stringIcNS_11char_traitsIcEENS1_IcEEEE8TestCaseEEPvEEEEE9constructB7v160006INS_4pairIKS8_S9_EEJSI_EvEEvRSD_PT_DpOT0_, symObjAddr: 0x49FC, symBinAddr: 0x10000AAB8, symSize: 0x34 }
  - { offsetInCU: 0xF487, offset: 0x23DF9, size: 0x8, addend: 0x0, symName: __ZNKSt3__110unique_ptrINS_11__tree_nodeINS_12__value_typeINS_12basic_stringIcNS_11char_traitsIcEENS_9allocatorIcEEEE8TestCaseEEPvEENS_22__tree_node_destructorINS6_ISC_EEEEEptB7v160006Ev, symObjAddr: 0x4A30, symBinAddr: 0x10000AAEC, symSize: 0x28 }
  - { offsetInCU: 0xF4AB, offset: 0x23E1D, size: 0x8, addend: 0x0, symName: __ZNSt3__110unique_ptrINS_11__tree_nodeINS_12__value_typeINS_12basic_stringIcNS_11char_traitsIcEENS_9allocatorIcEEEE8TestCaseEEPvEENS_22__tree_node_destructorINS6_ISC_EEEEE11get_deleterB7v160006Ev, symObjAddr: 0x4A58, symBinAddr: 0x10000AB14, symSize: 0x24 }
  - { offsetInCU: 0xF4CF, offset: 0x23E41, size: 0x8, addend: 0x0, symName: __ZNSt3__19allocatorINS_11__tree_nodeINS_12__value_typeINS_12basic_stringIcNS_11char_traitsIcEENS0_IcEEEE8TestCaseEEPvEEE8allocateB7v160006Em, symObjAddr: 0x4A7C, symBinAddr: 0x10000AB38, symSize: 0x5C }
  - { offsetInCU: 0xF50B, offset: 0x23E7D, size: 0x8, addend: 0x0, symName: __ZNSt3__116allocator_traitsINS_9allocatorINS_11__tree_nodeINS_12__value_typeINS_12basic_stringIcNS_11char_traitsIcEENS1_IcEEEE8TestCaseEEPvEEEEE8max_sizeB7v160006ISD_vEEmRKSD_, symObjAddr: 0x4AD8, symBinAddr: 0x10000AB94, symSize: 0x24 }
  - { offsetInCU: 0xF539, offset: 0x23EAB, size: 0x8, addend: 0x0, symName: __ZNKSt3__19allocatorINS_11__tree_nodeINS_12__value_typeINS_12basic_stringIcNS_11char_traitsIcEENS0_IcEEEE8TestCaseEEPvEEE8max_sizeB7v160006Ev, symObjAddr: 0x4B90, symBinAddr: 0x10000ABB8, symSize: 0x18 }
  - { offsetInCU: 0xF55E, offset: 0x23ED0, size: 0x8, addend: 0x0, symName: __ZNSt3__122__tree_node_destructorINS_9allocatorINS_11__tree_nodeINS_12__value_typeINS_12basic_stringIcNS_11char_traitsIcEENS1_IcEEEE8TestCaseEEPvEEEEEC2B7v160006ERSD_b, symObjAddr: 0x4BF8, symBinAddr: 0x10000ABD0, symSize: 0x38 }
  - { offsetInCU: 0xF5A5, offset: 0x23F17, size: 0x8, addend: 0x0, symName: __ZNSt3__110unique_ptrINS_11__tree_nodeINS_12__value_typeINS_12basic_stringIcNS_11char_traitsIcEENS_9allocatorIcEEEE8TestCaseEEPvEENS_22__tree_node_destructorINS6_ISC_EEEEEC2B7v160006ILb1EvEEPSC_NS_16__dependent_typeINS_27__unique_ptr_deleter_sfinaeISF_EEXT_EE20__good_rval_ref_typeE, symObjAddr: 0x4C30, symBinAddr: 0x10000AC08, symSize: 0x48 }
  - { offsetInCU: 0xF5F4, offset: 0x23F66, size: 0x8, addend: 0x0, symName: __ZNSt3__117__compressed_pairIPNS_11__tree_nodeINS_12__value_typeINS_12basic_stringIcNS_11char_traitsIcEENS_9allocatorIcEEEE8TestCaseEEPvEENS_22__tree_node_destructorINS6_ISC_EEEEEC1B7v160006IRSD_SG_EEOT_OT0_, symObjAddr: 0x4C78, symBinAddr: 0x10000AC50, symSize: 0x3C }
  - { offsetInCU: 0xF64A, offset: 0x23FBC, size: 0x8, addend: 0x0, symName: __ZNSt3__117__compressed_pairIPNS_11__tree_nodeINS_12__value_typeINS_12basic_stringIcNS_11char_traitsIcEENS_9allocatorIcEEEE8TestCaseEEPvEENS_22__tree_node_destructorINS6_ISC_EEEEEC2B7v160006IRSD_SG_EEOT_OT0_, symObjAddr: 0x4CB4, symBinAddr: 0x10000AC8C, symSize: 0x48 }
  - { offsetInCU: 0xF6A0, offset: 0x24012, size: 0x8, addend: 0x0, symName: __ZNSt3__122__compressed_pair_elemIPNS_11__tree_nodeINS_12__value_typeINS_12basic_stringIcNS_11char_traitsIcEENS_9allocatorIcEEEE8TestCaseEEPvEELi0ELb0EEC2B7v160006IRSD_vEEOT_, symObjAddr: 0x4CFC, symBinAddr: 0x10000ACD4, symSize: 0x24 }
  - { offsetInCU: 0xF6E1, offset: 0x24053, size: 0x8, addend: 0x0, symName: __ZNSt3__122__compressed_pair_elemINS_22__tree_node_destructorINS_9allocatorINS_11__tree_nodeINS_12__value_typeINS_12basic_stringIcNS_11char_traitsIcEENS2_IcEEEE8TestCaseEEPvEEEEEELi1ELb0EEC2B7v160006ISF_vEEOT_, symObjAddr: 0x4D20, symBinAddr: 0x10000ACF8, symSize: 0x24 }
  - { offsetInCU: 0xF722, offset: 0x24094, size: 0x8, addend: 0x0, symName: __ZNSt3__19allocatorINS_11__tree_nodeINS_12__value_typeINS_12basic_stringIcNS_11char_traitsIcEENS0_IcEEEE8TestCaseEEPvEEE9constructB7v160006INS_4pairIKS7_S8_EEJSG_EEEvPT_DpOT0_, symObjAddr: 0x4D44, symBinAddr: 0x10000AD1C, symSize: 0x30 }
  - { offsetInCU: 0xF778, offset: 0x240EA, size: 0x8, addend: 0x0, symName: __ZNSt3__14pairIKNS_12basic_stringIcNS_11char_traitsIcEENS_9allocatorIcEEEE8TestCaseEC1EOS9_, symObjAddr: 0x4D74, symBinAddr: 0x10000AD4C, symSize: 0x34 }
  - { offsetInCU: 0xF7AB, offset: 0x2411D, size: 0x8, addend: 0x0, symName: __ZNSt3__14pairIKNS_12basic_stringIcNS_11char_traitsIcEENS_9allocatorIcEEEE8TestCaseEC2EOS9_, symObjAddr: 0x4DA8, symBinAddr: 0x10000AD80, symSize: 0x48 }
  - { offsetInCU: 0xF7DE, offset: 0x24150, size: 0x8, addend: 0x0, symName: __ZN8TestCaseC1EOS_, symObjAddr: 0x4DF0, symBinAddr: 0x10000ADC8, symSize: 0x34 }
  - { offsetInCU: 0xF812, offset: 0x24184, size: 0x8, addend: 0x0, symName: __ZN8TestCaseC2EOS_, symObjAddr: 0x4E24, symBinAddr: 0x10000ADFC, symSize: 0x68 }
  - { offsetInCU: 0xF846, offset: 0x241B8, size: 0x8, addend: 0x0, symName: __ZNKSt3__117__compressed_pairIPNS_11__tree_nodeINS_12__value_typeINS_12basic_stringIcNS_11char_traitsIcEENS_9allocatorIcEEEE8TestCaseEEPvEENS_22__tree_node_destructorINS6_ISC_EEEEE5firstB7v160006Ev, symObjAddr: 0x4E8C, symBinAddr: 0x10000AE64, symSize: 0x24 }
  - { offsetInCU: 0xF86A, offset: 0x241DC, size: 0x8, addend: 0x0, symName: __ZNKSt3__122__compressed_pair_elemIPNS_11__tree_nodeINS_12__value_typeINS_12basic_stringIcNS_11char_traitsIcEENS_9allocatorIcEEEE8TestCaseEEPvEELi0ELb0EE5__getB7v160006Ev, symObjAddr: 0x4EB0, symBinAddr: 0x10000AE88, symSize: 0x14 }
  - { offsetInCU: 0xF88F, offset: 0x24201, size: 0x8, addend: 0x0, symName: __ZNSt3__117__compressed_pairIPNS_11__tree_nodeINS_12__value_typeINS_12basic_stringIcNS_11char_traitsIcEENS_9allocatorIcEEEE8TestCaseEEPvEENS_22__tree_node_destructorINS6_ISC_EEEEE6secondB7v160006Ev, symObjAddr: 0x4EC4, symBinAddr: 0x10000AE9C, symSize: 0x28 }
  - { offsetInCU: 0xF8B3, offset: 0x24225, size: 0x8, addend: 0x0, symName: __ZNSt3__122__compressed_pair_elemINS_22__tree_node_destructorINS_9allocatorINS_11__tree_nodeINS_12__value_typeINS_12basic_stringIcNS_11char_traitsIcEENS2_IcEEEE8TestCaseEEPvEEEEEELi1ELb0EE5__getB7v160006Ev, symObjAddr: 0x4EEC, symBinAddr: 0x10000AEC4, symSize: 0x14 }
  - { offsetInCU: 0xF8D8, offset: 0x2424A, size: 0x8, addend: 0x0, symName: __ZNSt3__16__treeINS_12__value_typeINS_12basic_stringIcNS_11char_traitsIcEENS_9allocatorIcEEEE8TestCaseEENS_19__map_value_compareIS7_S9_NS_4lessIS7_EELb1EEENS5_IS9_EEE4sizeB7v160006Ev, symObjAddr: 0x517C, symBinAddr: 0x10000B154, symSize: 0x28 }
  - { offsetInCU: 0xF8FC, offset: 0x2426E, size: 0x8, addend: 0x0, symName: __ZNSt3__116__tree_node_baseIPvE12__set_parentB7v160006EPS2_, symObjAddr: 0x5348, symBinAddr: 0x10000B320, symSize: 0x20 }
  - { offsetInCU: 0xF930, offset: 0x242A2, size: 0x8, addend: 0x0, symName: __ZNSt3__117__compressed_pairImNS_19__map_value_compareINS_12basic_stringIcNS_11char_traitsIcEENS_9allocatorIcEEEENS_12__value_typeIS7_8TestCaseEENS_4lessIS7_EELb1EEEE5firstB7v160006Ev, symObjAddr: 0x5368, symBinAddr: 0x10000B340, symSize: 0x24 }
  - { offsetInCU: 0xF954, offset: 0x242C6, size: 0x8, addend: 0x0, symName: __ZNSt3__122__compressed_pair_elemImLi0ELb0EE5__getB7v160006Ev, symObjAddr: 0x538C, symBinAddr: 0x10000B364, symSize: 0x14 }
  - { offsetInCU: 0xF979, offset: 0x242EB, size: 0x8, addend: 0x0, symName: __ZNSt3__117__compressed_pairIPNS_11__tree_nodeINS_12__value_typeINS_12basic_stringIcNS_11char_traitsIcEENS_9allocatorIcEEEE8TestCaseEEPvEENS_22__tree_node_destructorINS6_ISC_EEEEE5firstB7v160006Ev, symObjAddr: 0x53A0, symBinAddr: 0x10000B378, symSize: 0x24 }
  - { offsetInCU: 0xF99D, offset: 0x2430F, size: 0x8, addend: 0x0, symName: __ZNSt3__122__compressed_pair_elemIPNS_11__tree_nodeINS_12__value_typeINS_12basic_stringIcNS_11char_traitsIcEENS_9allocatorIcEEEE8TestCaseEEPvEELi0ELb0EE5__getB7v160006Ev, symObjAddr: 0x53C4, symBinAddr: 0x10000B39C, symSize: 0x14 }
  - { offsetInCU: 0xF9C2, offset: 0x24334, size: 0x8, addend: 0x0, symName: __ZNSt3__110unique_ptrINS_11__tree_nodeINS_12__value_typeINS_12basic_stringIcNS_11char_traitsIcEENS_9allocatorIcEEEE8TestCaseEEPvEENS_22__tree_node_destructorINS6_ISC_EEEEED2B7v160006Ev, symObjAddr: 0x53D8, symBinAddr: 0x10000B3B0, symSize: 0x30 }
  - { offsetInCU: 0xF9EA, offset: 0x2435C, size: 0x8, addend: 0x0, symName: __ZNSt3__110unique_ptrINS_11__tree_nodeINS_12__value_typeINS_12basic_stringIcNS_11char_traitsIcEENS_9allocatorIcEEEE8TestCaseEEPvEENS_22__tree_node_destructorINS6_ISC_EEEEE5resetB7v160006EPSC_, symObjAddr: 0x5408, symBinAddr: 0x10000B3E0, symSize: 0x78 }
  - { offsetInCU: 0xFA2C, offset: 0x2439E, size: 0x8, addend: 0x0, symName: __ZNSt3__122__tree_node_destructorINS_9allocatorINS_11__tree_nodeINS_12__value_typeINS_12basic_stringIcNS_11char_traitsIcEENS1_IcEEEE8TestCaseEEPvEEEEEclB7v160006EPSC_, symObjAddr: 0x5480, symBinAddr: 0x10000B458, symSize: 0x94 }
  - { offsetInCU: 0xFA5F, offset: 0x243D1, size: 0x8, addend: 0x0, symName: __ZNSt3__115__tree_iteratorINS_12__value_typeINS_12basic_stringIcNS_11char_traitsIcEENS_9allocatorIcEEEE8TestCaseEEPNS_11__tree_nodeIS9_PvEElEC2B7v160006ESD_, symObjAddr: 0x5514, symBinAddr: 0x10000B4EC, symSize: 0x20 }
  - { offsetInCU: 0xFA97, offset: 0x24409, size: 0x8, addend: 0x0, symName: __ZNSt3__14pairINS_15__tree_iteratorINS_12__value_typeINS_12basic_stringIcNS_11char_traitsIcEENS_9allocatorIcEEEE8TestCaseEEPNS_11__tree_nodeISA_PvEElEEbEC2B7v160006ISF_RbLSC_0EEEOT_OT0_, symObjAddr: 0x5534, symBinAddr: 0x10000B50C, symSize: 0x38 }
  - { offsetInCU: 0xFAF5, offset: 0x24467, size: 0x8, addend: 0x0, symName: __ZNSt3__14pairINS_14__map_iteratorINS_15__tree_iteratorINS_12__value_typeINS_12basic_stringIcNS_11char_traitsIcEENS_9allocatorIcEEEE8TestCaseEEPNS_11__tree_nodeISB_PvEElEEEEbEC2B7v160006ISG_bLSD_0EEEONS0_IT_T0_EE, symObjAddr: 0x556C, symBinAddr: 0x10000B544, symSize: 0x50 }
  - { offsetInCU: 0xFB45, offset: 0x244B7, size: 0x8, addend: 0x0, symName: __ZNSt3__114__map_iteratorINS_15__tree_iteratorINS_12__value_typeINS_12basic_stringIcNS_11char_traitsIcEENS_9allocatorIcEEEE8TestCaseEEPNS_11__tree_nodeISA_PvEElEEEC1B7v160006ESF_, symObjAddr: 0x55BC, symBinAddr: 0x10000B594, symSize: 0x34 }
  - { offsetInCU: 0xFB7C, offset: 0x244EE, size: 0x8, addend: 0x0, symName: __ZNSt3__114__map_iteratorINS_15__tree_iteratorINS_12__value_typeINS_12basic_stringIcNS_11char_traitsIcEENS_9allocatorIcEEEE8TestCaseEEPNS_11__tree_nodeISA_PvEElEEEC2B7v160006ESF_, symObjAddr: 0x55F0, symBinAddr: 0x10000B5C8, symSize: 0x20 }
  - { offsetInCU: 0xFBB4, offset: 0x24526, size: 0x8, addend: 0x0, symName: __ZN8TestCaseC2ERKNSt3__112basic_stringIcNS0_11char_traitsIcEENS0_9allocatorIcEEEEPFvvE, symObjAddr: 0x5610, symBinAddr: 0x10000B5E8, symSize: 0x58 }
  - { offsetInCU: 0xFBFD, offset: 0x2456F, size: 0x8, addend: 0x0, symName: __ZNSt3__14pairIKNS_12basic_stringIcNS_11char_traitsIcEENS_9allocatorIcEEEE8TestCaseEC2B7v160006IRS7_S8_LPv0EEEOT_OT0_, symObjAddr: 0x57D8, symBinAddr: 0x10000B640, symSize: 0x48 }
  - { offsetInCU: 0xFC59, offset: 0x245CB, size: 0x8, addend: 0x0, symName: __Z12assert_equalIRA6_KcRKNSt3__112basic_stringIcNS3_11char_traitsIcEENS3_9allocatorIcEEEEEvOT_OT0_iPS0_, symObjAddr: 0x5820, symBinAddr: 0x10000B688, symSize: 0x174 }
  - { offsetInCU: 0xFD3F, offset: 0x246B1, size: 0x8, addend: 0x0, symName: __ZN11safe_equalsIRA6_KcRKNSt3__112basic_stringIcNS3_11char_traitsIcEENS3_9allocatorIcEEEEvE6equalsES2_SB_, symObjAddr: 0x5994, symBinAddr: 0x10000B7FC, symSize: 0x30 }
  - { offsetInCU: 0xFD71, offset: 0x246E3, size: 0x8, addend: 0x0, symName: __Z5printIA6_cERNSt3__113basic_ostreamIcNS1_11char_traitsIcEEEES6_RKT_, symObjAddr: 0x59C4, symBinAddr: 0x10000B82C, symSize: 0x34 }
  - { offsetInCU: 0xFDB4, offset: 0x24726, size: 0x8, addend: 0x0, symName: __Z5printINSt3__112basic_stringIcNS0_11char_traitsIcEENS0_9allocatorIcEEEEERNS0_13basic_ostreamIcS3_EES9_RKT_, symObjAddr: 0x59F8, symBinAddr: 0x10000B860, symSize: 0x34 }
  - { offsetInCU: 0xFDF7, offset: 0x24769, size: 0x8, addend: 0x0, symName: __Z18safe_equals_helperIA6_cNSt3__112basic_stringIcNS1_11char_traitsIcEENS1_9allocatorIcEEEEEbRKT_RKT0_, symObjAddr: 0x5A2C, symBinAddr: 0x10000B894, symSize: 0x30 }
  - { offsetInCU: 0xFE46, offset: 0x247B8, size: 0x8, addend: 0x0, symName: __Z12print_helperILm6EERNSt3__113basic_ostreamIcNS0_11char_traitsIcEEEES5_RAT__Kcii, symObjAddr: 0x5A5C, symBinAddr: 0x10000B8C4, symSize: 0xA4 }
  - { offsetInCU: 0xFEBC, offset: 0x2482E, size: 0x8, addend: 0x0, symName: __Z21print_sequence_helperIA6_cERDTcl5printfp_cmdeclsr3stdE5beginfp0_Edeclsr3stdE3endfp0_EEERNSt3__113basic_ostreamIcNS3_11char_traitsIcEEEERKT_, symObjAddr: 0x5B00, symBinAddr: 0x10000B968, symSize: 0x10C }
  - { offsetInCU: 0xFF0D, offset: 0x2487F, size: 0x8, addend: 0x0, symName: __Z5printIcERNSt3__113basic_ostreamIcNS0_11char_traitsIcEEEES5_RKT_, symObjAddr: 0x5C38, symBinAddr: 0x10000BAA0, symSize: 0x34 }
  - { offsetInCU: 0xFF50, offset: 0x248C2, size: 0x8, addend: 0x0, symName: __Z12print_helperIcERDTlsfp_fp0_ERNSt3__113basic_ostreamIcNS2_11char_traitsIcEEEERKT_ii, symObjAddr: 0x5C6C, symBinAddr: 0x10000BAD4, symSize: 0x38 }
  - { offsetInCU: 0xFFA9, offset: 0x2491B, size: 0x8, addend: 0x0, symName: __Z12print_helperINSt3__112basic_stringIcNS0_11char_traitsIcEENS0_9allocatorIcEEEEERDTlsfp_fp0_ERNS0_13basic_ostreamIcS3_EERKT_ii, symObjAddr: 0x5CA4, symBinAddr: 0x10000BB0C, symSize: 0x34 }
  - { offsetInCU: 0x10003, offset: 0x24975, size: 0x8, addend: 0x0, symName: __ZN18TestSuiteDestroyerD2Ev, symObjAddr: 0x5CD8, symBinAddr: 0x10000BB40, symSize: 0x58 }
  - { offsetInCU: 0x1002B, offset: 0x2499D, size: 0x8, addend: 0x0, symName: __ZN9TestSuiteD1Ev, symObjAddr: 0x5D30, symBinAddr: 0x10000BB98, symSize: 0x2C }
  - { offsetInCU: 0x10053, offset: 0x249C5, size: 0x8, addend: 0x0, symName: __ZN9TestSuiteD2Ev, symObjAddr: 0x5D5C, symBinAddr: 0x10000BBC4, symSize: 0x2C }
  - { offsetInCU: 0x1007B, offset: 0x249ED, size: 0x8, addend: 0x0, symName: __ZNSt3__16__treeINS_12__value_typeINS_12basic_stringIcNS_11char_traitsIcEENS_9allocatorIcEEEE8TestCaseEENS_19__map_value_compareIS7_S9_NS_4lessIS7_EELb1EEENS5_IS9_EEE5beginB7v160006Ev, symObjAddr: 0x5D88, symBinAddr: 0x10000BBF0, symSize: 0x34 }
  - { offsetInCU: 0x1009F, offset: 0x24A11, size: 0x8, addend: 0x0, symName: __ZNSt3__115__tree_iteratorINS_12__value_typeINS_12basic_stringIcNS_11char_traitsIcEENS_9allocatorIcEEEE8TestCaseEEPNS_11__tree_nodeIS9_PvEElEC1B7v160006EPNS_15__tree_end_nodeIPNS_16__tree_node_baseISB_EEEE, symObjAddr: 0x5DBC, symBinAddr: 0x10000BC24, symSize: 0x34 }
  - { offsetInCU: 0x100D6, offset: 0x24A48, size: 0x8, addend: 0x0, symName: __ZNSt3__115__tree_iteratorINS_12__value_typeINS_12basic_stringIcNS_11char_traitsIcEENS_9allocatorIcEEEE8TestCaseEEPNS_11__tree_nodeIS9_PvEElEC2B7v160006EPNS_15__tree_end_nodeIPNS_16__tree_node_baseISB_EEEE, symObjAddr: 0x5DF0, symBinAddr: 0x10000BC58, symSize: 0x20 }
  - { offsetInCU: 0x1010E, offset: 0x24A80, size: 0x8, addend: 0x0, symName: __ZNSt3__16__treeINS_12__value_typeINS_12basic_stringIcNS_11char_traitsIcEENS_9allocatorIcEEEE8TestCaseEENS_19__map_value_compareIS7_S9_NS_4lessIS7_EELb1EEENS5_IS9_EEE3endB7v160006Ev, symObjAddr: 0x5E10, symBinAddr: 0x10000BC78, symSize: 0x34 }
  - { offsetInCU: 0x1014B, offset: 0x24ABD, size: 0x8, addend: 0x0, symName: __ZNSt3__19basic_iosIcNS_11char_traitsIcEEEC2B7v160006Ev, symObjAddr: 0x67C4, symBinAddr: 0x10000BCAC, symSize: 0x44 }
  - { offsetInCU: 0x10173, offset: 0x24AE5, size: 0x8, addend: 0x0, symName: __ZNSt3__113basic_ostreamIcNS_11char_traitsIcEEEC2B7v160006EPNS_15basic_streambufIcS2_EE, symObjAddr: 0x6808, symBinAddr: 0x10000BCF0, symSize: 0x60 }
  - { offsetInCU: 0x101B5, offset: 0x24B27, size: 0x8, addend: 0x0, symName: __ZNSt3__115basic_stringbufIcNS_11char_traitsIcEENS_9allocatorIcEEEC1B7v160006Ej, symObjAddr: 0x6868, symBinAddr: 0x10000BD50, symSize: 0x34 }
  - { offsetInCU: 0x101EB, offset: 0x24B5D, size: 0x8, addend: 0x0, symName: __ZNSt3__18ios_baseC2B7v160006Ev, symObjAddr: 0x689C, symBinAddr: 0x10000BD84, symSize: 0x24 }
  - { offsetInCU: 0x10214, offset: 0x24B86, size: 0x8, addend: 0x0, symName: __ZNSt3__19basic_iosIcNS_11char_traitsIcEEE4initB7v160006EPNS_15basic_streambufIcS2_EE, symObjAddr: 0x68C0, symBinAddr: 0x10000BDA8, symSize: 0x44 }
  - { offsetInCU: 0x1024A, offset: 0x24BBC, size: 0x8, addend: 0x0, symName: __ZNSt3__115basic_stringbufIcNS_11char_traitsIcEENS_9allocatorIcEEEC2B7v160006Ej, symObjAddr: 0x6904, symBinAddr: 0x10000BDEC, symSize: 0x60 }
  - { offsetInCU: 0x10280, offset: 0x24BF2, size: 0x8, addend: 0x0, symName: __ZNSt3__112basic_stringIcNS_11char_traitsIcEENS_9allocatorIcEEE13__move_assignB7v160006ERS5_NS_17integral_constantIbLb1EEE, symObjAddr: 0x6964, symBinAddr: 0x10000BE4C, symSize: 0xC8 }
  - { offsetInCU: 0x102C2, offset: 0x24C34, size: 0x8, addend: 0x0, symName: __ZNSt3__116allocator_traitsINS_9allocatorIcEEE10deallocateB7v160006ERS2_Pcm, symObjAddr: 0x6A2C, symBinAddr: 0x10000BF14, symSize: 0x34 }
  - { offsetInCU: 0x10304, offset: 0x24C76, size: 0x8, addend: 0x0, symName: __ZNSt3__112basic_stringIcNS_11char_traitsIcEENS_9allocatorIcEEE7__allocB7v160006Ev, symObjAddr: 0x6A60, symBinAddr: 0x10000BF48, symSize: 0x24 }
  - { offsetInCU: 0x10328, offset: 0x24C9A, size: 0x8, addend: 0x0, symName: __ZNKSt3__112basic_stringIcNS_11char_traitsIcEENS_9allocatorIcEEE14__get_long_capB7v160006Ev, symObjAddr: 0x6A84, symBinAddr: 0x10000BF6C, symSize: 0x30 }
  - { offsetInCU: 0x1034C, offset: 0x24CBE, size: 0x8, addend: 0x0, symName: __ZNSt3__112basic_stringIcNS_11char_traitsIcEENS_9allocatorIcEEE19__move_assign_allocB7v160006ERS5_, symObjAddr: 0x6AB4, symBinAddr: 0x10000BF9C, symSize: 0x2C }
  - { offsetInCU: 0x1037F, offset: 0x24CF1, size: 0x8, addend: 0x0, symName: __ZNSt3__19allocatorIcE10deallocateB7v160006EPcm, symObjAddr: 0x6B7C, symBinAddr: 0x10000BFC8, symSize: 0x40 }
  - { offsetInCU: 0x103BF, offset: 0x24D31, size: 0x8, addend: 0x0, symName: __ZNSt3__117__compressed_pairINS_12basic_stringIcNS_11char_traitsIcEENS_9allocatorIcEEE5__repES5_E6secondB7v160006Ev, symObjAddr: 0x6BBC, symBinAddr: 0x10000C008, symSize: 0x24 }
  - { offsetInCU: 0x103E3, offset: 0x24D55, size: 0x8, addend: 0x0, symName: __ZNSt3__122__compressed_pair_elemINS_9allocatorIcEELi1ELb1EE5__getB7v160006Ev, symObjAddr: 0x6BE0, symBinAddr: 0x10000C02C, symSize: 0x14 }
  - { offsetInCU: 0x10408, offset: 0x24D7A, size: 0x8, addend: 0x0, symName: __ZNSt3__112basic_stringIcNS_11char_traitsIcEENS_9allocatorIcEEE19__move_assign_allocB7v160006ERS5_NS_17integral_constantIbLb1EEE, symObjAddr: 0x6BF4, symBinAddr: 0x10000C040, symSize: 0x38 }
  - { offsetInCU: 0x10447, offset: 0x24DB9, size: 0x8, addend: 0x0, symName: __ZNSt3__16vectorINS_12basic_stringIcNS_11char_traitsIcEENS_9allocatorIcEEEENS4_IS6_EEEC2B7v160006Ev, symObjAddr: 0x6C2C, symBinAddr: 0x10000C078, symSize: 0x58 }
  - { offsetInCU: 0x10474, offset: 0x24DE6, size: 0x8, addend: 0x0, symName: __ZNSt3__117__compressed_pairIPNS_12basic_stringIcNS_11char_traitsIcEENS_9allocatorIcEEEENS4_IS6_EEEC1B7v160006IDnNS_18__default_init_tagEEEOT_OT0_, symObjAddr: 0x6C84, symBinAddr: 0x10000C0D0, symSize: 0x3C }
  - { offsetInCU: 0x104CA, offset: 0x24E3C, size: 0x8, addend: 0x0, symName: __ZNSt3__117__compressed_pairIPNS_12basic_stringIcNS_11char_traitsIcEENS_9allocatorIcEEEENS4_IS6_EEEC2B7v160006IDnNS_18__default_init_tagEEEOT_OT0_, symObjAddr: 0x6CD0, symBinAddr: 0x10000C11C, symSize: 0x40 }
  - { offsetInCU: 0x10520, offset: 0x24E92, size: 0x8, addend: 0x0, symName: __ZNSt3__122__compressed_pair_elemIPNS_12basic_stringIcNS_11char_traitsIcEENS_9allocatorIcEEEELi0ELb0EEC2B7v160006IDnvEEOT_, symObjAddr: 0x6D10, symBinAddr: 0x10000C15C, symSize: 0x1C }
  - { offsetInCU: 0x10561, offset: 0x24ED3, size: 0x8, addend: 0x0, symName: __ZNSt3__122__compressed_pair_elemINS_9allocatorINS_12basic_stringIcNS_11char_traitsIcEENS1_IcEEEEEELi1ELb1EEC2B7v160006ENS_18__default_init_tagE, symObjAddr: 0x6D2C, symBinAddr: 0x10000C178, symSize: 0x2C }
  - { offsetInCU: 0x10594, offset: 0x24F06, size: 0x8, addend: 0x0, symName: __ZNSt3__19allocatorINS_12basic_stringIcNS_11char_traitsIcEENS0_IcEEEEEC2B7v160006Ev, symObjAddr: 0x6D58, symBinAddr: 0x10000C1A4, symSize: 0x2C }
  - { offsetInCU: 0x105BC, offset: 0x24F2E, size: 0x8, addend: 0x0, symName: __ZNSt3__116__non_trivial_ifILb1ENS_9allocatorINS_12basic_stringIcNS_11char_traitsIcEENS1_IcEEEEEEEC2B7v160006Ev, symObjAddr: 0x6D84, symBinAddr: 0x10000C1D0, symSize: 0x14 }
  - { offsetInCU: 0x105E5, offset: 0x24F57, size: 0x8, addend: 0x0, symName: __ZNSt3__16vectorINS_12basic_stringIcNS_11char_traitsIcEENS_9allocatorIcEEEENS4_IS6_EEED2B7v160006Ev, symObjAddr: 0x6D98, symBinAddr: 0x10000C1E4, symSize: 0x44 }
  - { offsetInCU: 0x1060D, offset: 0x24F7F, size: 0x8, addend: 0x0, symName: __ZNSt3__16vectorINS_12basic_stringIcNS_11char_traitsIcEENS_9allocatorIcEEEENS4_IS6_EEE16__destroy_vectorC1ERS8_, symObjAddr: 0x6DDC, symBinAddr: 0x10000C228, symSize: 0x34 }
  - { offsetInCU: 0x10644, offset: 0x24FB6, size: 0x8, addend: 0x0, symName: __ZNSt3__16vectorINS_12basic_stringIcNS_11char_traitsIcEENS_9allocatorIcEEEENS4_IS6_EEE16__destroy_vectorclB7v160006Ev, symObjAddr: 0x6E10, symBinAddr: 0x10000C25C, symSize: 0x9C }
  - { offsetInCU: 0x10668, offset: 0x24FDA, size: 0x8, addend: 0x0, symName: __ZNSt3__16vectorINS_12basic_stringIcNS_11char_traitsIcEENS_9allocatorIcEEEENS4_IS6_EEE16__destroy_vectorC2ERS8_, symObjAddr: 0x6EAC, symBinAddr: 0x10000C2F8, symSize: 0x20 }
  - { offsetInCU: 0x106A0, offset: 0x25012, size: 0x8, addend: 0x0, symName: __ZNKSt3__16vectorINS_12basic_stringIcNS_11char_traitsIcEENS_9allocatorIcEEEENS4_IS6_EEE17__annotate_deleteB7v160006Ev, symObjAddr: 0x6ECC, symBinAddr: 0x10000C318, symSize: 0xD4 }
  - { offsetInCU: 0x106C4, offset: 0x25036, size: 0x8, addend: 0x0, symName: __ZNSt3__16vectorINS_12basic_stringIcNS_11char_traitsIcEENS_9allocatorIcEEEENS4_IS6_EEE7__clearB7v160006Ev, symObjAddr: 0x6FB0, symBinAddr: 0x10000C3FC, symSize: 0x28 }
  - { offsetInCU: 0x106E8, offset: 0x2505A, size: 0x8, addend: 0x0, symName: __ZNSt3__116allocator_traitsINS_9allocatorINS_12basic_stringIcNS_11char_traitsIcEENS1_IcEEEEEEE10deallocateB7v160006ERS7_PS6_m, symObjAddr: 0x6FD8, symBinAddr: 0x10000C424, symSize: 0x34 }
  - { offsetInCU: 0x1072A, offset: 0x2509C, size: 0x8, addend: 0x0, symName: __ZNSt3__16vectorINS_12basic_stringIcNS_11char_traitsIcEENS_9allocatorIcEEEENS4_IS6_EEE7__allocB7v160006Ev, symObjAddr: 0x700C, symBinAddr: 0x10000C458, symSize: 0x28 }
  - { offsetInCU: 0x1074E, offset: 0x250C0, size: 0x8, addend: 0x0, symName: __ZNKSt3__16vectorINS_12basic_stringIcNS_11char_traitsIcEENS_9allocatorIcEEEENS4_IS6_EEE8capacityB7v160006Ev, symObjAddr: 0x7034, symBinAddr: 0x10000C480, symSize: 0x40 }
  - { offsetInCU: 0x10772, offset: 0x250E4, size: 0x8, addend: 0x0, symName: __ZNKSt3__16vectorINS_12basic_stringIcNS_11char_traitsIcEENS_9allocatorIcEEEENS4_IS6_EEE31__annotate_contiguous_containerB7v160006EPKvSA_SA_SA_, symObjAddr: 0x7074, symBinAddr: 0x10000C4C0, symSize: 0x20 }
  - { offsetInCU: 0x107C7, offset: 0x25139, size: 0x8, addend: 0x0, symName: __ZNKSt3__16vectorINS_12basic_stringIcNS_11char_traitsIcEENS_9allocatorIcEEEENS4_IS6_EEE4dataB7v160006Ev, symObjAddr: 0x7094, symBinAddr: 0x10000C4E0, symSize: 0x28 }
  - { offsetInCU: 0x107EB, offset: 0x2515D, size: 0x8, addend: 0x0, symName: __ZNSt3__16vectorINS_12basic_stringIcNS_11char_traitsIcEENS_9allocatorIcEEEENS4_IS6_EEE22__base_destruct_at_endB7v160006EPS6_, symObjAddr: 0x70D0, symBinAddr: 0x10000C51C, symSize: 0x8C }
  - { offsetInCU: 0x1082D, offset: 0x2519F, size: 0x8, addend: 0x0, symName: __ZNSt3__116allocator_traitsINS_9allocatorINS_12basic_stringIcNS_11char_traitsIcEENS1_IcEEEEEEE7destroyB7v160006IS6_vEEvRS7_PT_, symObjAddr: 0x715C, symBinAddr: 0x10000C5A8, symSize: 0x2C }
  - { offsetInCU: 0x1086A, offset: 0x251DC, size: 0x8, addend: 0x0, symName: __ZNSt3__19allocatorINS_12basic_stringIcNS_11char_traitsIcEENS0_IcEEEEE7destroyB7v160006EPS5_, symObjAddr: 0x7188, symBinAddr: 0x10000C5D4, symSize: 0x28 }
  - { offsetInCU: 0x1089C, offset: 0x2520E, size: 0x8, addend: 0x0, symName: __ZNSt3__19allocatorINS_12basic_stringIcNS_11char_traitsIcEENS0_IcEEEEE10deallocateB7v160006EPS5_m, symObjAddr: 0x71B0, symBinAddr: 0x10000C5FC, symSize: 0x44 }
  - { offsetInCU: 0x108DC, offset: 0x2524E, size: 0x8, addend: 0x0, symName: __ZNSt3__117__compressed_pairIPNS_12basic_stringIcNS_11char_traitsIcEENS_9allocatorIcEEEENS4_IS6_EEE6secondB7v160006Ev, symObjAddr: 0x71F4, symBinAddr: 0x10000C640, symSize: 0x24 }
  - { offsetInCU: 0x10900, offset: 0x25272, size: 0x8, addend: 0x0, symName: __ZNSt3__122__compressed_pair_elemINS_9allocatorINS_12basic_stringIcNS_11char_traitsIcEENS1_IcEEEEEELi1ELb1EE5__getB7v160006Ev, symObjAddr: 0x7218, symBinAddr: 0x10000C664, symSize: 0x14 }
  - { offsetInCU: 0x10925, offset: 0x25297, size: 0x8, addend: 0x0, symName: __ZNKSt3__16vectorINS_12basic_stringIcNS_11char_traitsIcEENS_9allocatorIcEEEENS4_IS6_EEE9__end_capB7v160006Ev, symObjAddr: 0x722C, symBinAddr: 0x10000C678, symSize: 0x28 }
  - { offsetInCU: 0x10949, offset: 0x252BB, size: 0x8, addend: 0x0, symName: __ZNKSt3__117__compressed_pairIPNS_12basic_stringIcNS_11char_traitsIcEENS_9allocatorIcEEEENS4_IS6_EEE5firstB7v160006Ev, symObjAddr: 0x7254, symBinAddr: 0x10000C6A0, symSize: 0x24 }
  - { offsetInCU: 0x1096D, offset: 0x252DF, size: 0x8, addend: 0x0, symName: __ZNKSt3__122__compressed_pair_elemIPNS_12basic_stringIcNS_11char_traitsIcEENS_9allocatorIcEEEELi0ELb0EE5__getB7v160006Ev, symObjAddr: 0x7278, symBinAddr: 0x10000C6C4, symSize: 0x14 }
  - { offsetInCU: 0x10992, offset: 0x25304, size: 0x8, addend: 0x0, symName: __ZNSt3__16vectorINS_12basic_stringIcNS_11char_traitsIcEENS_9allocatorIcEEEENS4_IS6_EEE13__move_assignERS8_NS_17integral_constantIbLb1EEE, symObjAddr: 0x728C, symBinAddr: 0x10000C6D8, symSize: 0xAC }
  - { offsetInCU: 0x109D4, offset: 0x25346, size: 0x8, addend: 0x0, symName: __ZNSt3__16vectorINS_12basic_stringIcNS_11char_traitsIcEENS_9allocatorIcEEEENS4_IS6_EEE13__vdeallocateEv, symObjAddr: 0x7338, symBinAddr: 0x10000C784, symSize: 0x8C }
  - { offsetInCU: 0x109FB, offset: 0x2536D, size: 0x8, addend: 0x0, symName: __ZNSt3__16vectorINS_12basic_stringIcNS_11char_traitsIcEENS_9allocatorIcEEEENS4_IS6_EEE19__move_assign_allocB7v160006ERS8_, symObjAddr: 0x73C4, symBinAddr: 0x10000C810, symSize: 0x2C }
  - { offsetInCU: 0x10A2E, offset: 0x253A0, size: 0x8, addend: 0x0, symName: __ZNSt3__16vectorINS_12basic_stringIcNS_11char_traitsIcEENS_9allocatorIcEEEENS4_IS6_EEE9__end_capB7v160006Ev, symObjAddr: 0x73F0, symBinAddr: 0x10000C83C, symSize: 0x28 }
  - { offsetInCU: 0x10A52, offset: 0x253C4, size: 0x8, addend: 0x0, symName: __ZNSt3__16vectorINS_12basic_stringIcNS_11char_traitsIcEENS_9allocatorIcEEEENS4_IS6_EEE5clearB7v160006Ev, symObjAddr: 0x742C, symBinAddr: 0x10000C878, symSize: 0x54 }
  - { offsetInCU: 0x10A85, offset: 0x253F7, size: 0x8, addend: 0x0, symName: __ZNKSt3__16vectorINS_12basic_stringIcNS_11char_traitsIcEENS_9allocatorIcEEEENS4_IS6_EEE17__annotate_shrinkB7v160006Em, symObjAddr: 0x7480, symBinAddr: 0x10000C8CC, symSize: 0xD0 }
  - { offsetInCU: 0x10AB8, offset: 0x2542A, size: 0x8, addend: 0x0, symName: __ZNSt3__16vectorINS_12basic_stringIcNS_11char_traitsIcEENS_9allocatorIcEEEENS4_IS6_EEE19__move_assign_allocB7v160006ERS8_NS_17integral_constantIbLb1EEE, symObjAddr: 0x7560, symBinAddr: 0x10000C9AC, symSize: 0x38 }
  - { offsetInCU: 0x10AF7, offset: 0x25469, size: 0x8, addend: 0x0, symName: __ZNSt3__117__compressed_pairIPNS_12basic_stringIcNS_11char_traitsIcEENS_9allocatorIcEEEENS4_IS6_EEE5firstB7v160006Ev, symObjAddr: 0x7598, symBinAddr: 0x10000C9E4, symSize: 0x24 }
  - { offsetInCU: 0x10B1B, offset: 0x2548D, size: 0x8, addend: 0x0, symName: __ZNSt3__122__compressed_pair_elemIPNS_12basic_stringIcNS_11char_traitsIcEENS_9allocatorIcEEEELi0ELb0EE5__getB7v160006Ev, symObjAddr: 0x75BC, symBinAddr: 0x10000CA08, symSize: 0x14 }
  - { offsetInCU: 0x10B40, offset: 0x254B2, size: 0x8, addend: 0x0, symName: __ZNSt3__16vectorINS_12basic_stringIcNS_11char_traitsIcEENS_9allocatorIcEEEENS4_IS6_EEE11__make_iterB7v160006EPS6_, symObjAddr: 0x75D0, symBinAddr: 0x10000CA1C, symSize: 0x34 }
  - { offsetInCU: 0x10B73, offset: 0x254E5, size: 0x8, addend: 0x0, symName: __ZNSt3__111__wrap_iterIPNS_12basic_stringIcNS_11char_traitsIcEENS_9allocatorIcEEEEEC1B7v160006EPKvS7_, symObjAddr: 0x7604, symBinAddr: 0x10000CA50, symSize: 0x3C }
  - { offsetInCU: 0x10BB7, offset: 0x25529, size: 0x8, addend: 0x0, symName: __ZNSt3__111__wrap_iterIPNS_12basic_stringIcNS_11char_traitsIcEENS_9allocatorIcEEEEEC2B7v160006EPKvS7_, symObjAddr: 0x7640, symBinAddr: 0x10000CA8C, symSize: 0x24 }
  - { offsetInCU: 0x10BFC, offset: 0x2556E, size: 0x8, addend: 0x0, symName: __ZNSt3__16__treeINS_12__value_typeINS_12basic_stringIcNS_11char_traitsIcEENS_9allocatorIcEEEE8TestCaseEENS_19__map_value_compareIS7_S9_NS_4lessIS7_EELb1EEENS5_IS9_EEE4findIS7_EENS_15__tree_iteratorIS9_PNS_11__tree_nodeIS9_PvEElEERKT_, symObjAddr: 0x7664, symBinAddr: 0x10000CAB0, symSize: 0xF8 }
  - { offsetInCU: 0x10C4A, offset: 0x255BC, size: 0x8, addend: 0x0, symName: __ZNSt3__16__treeINS_12__value_typeINS_12basic_stringIcNS_11char_traitsIcEENS_9allocatorIcEEEE8TestCaseEENS_19__map_value_compareIS7_S9_NS_4lessIS7_EELb1EEENS5_IS9_EEE13__lower_boundIS7_EENS_15__tree_iteratorIS9_PNS_11__tree_nodeIS9_PvEElEERKT_SL_PNS_15__tree_end_nodeIPNS_16__tree_node_baseISJ_EEEE, symObjAddr: 0x775C, symBinAddr: 0x10000CBA8, symSize: 0xA4 }
  - { offsetInCU: 0x10CA7, offset: 0x25619, size: 0x8, addend: 0x0, symName: __ZNKSt3__115__tree_iteratorINS_12__value_typeINS_12basic_stringIcNS_11char_traitsIcEENS_9allocatorIcEEEE8TestCaseEEPNS_11__tree_nodeIS9_PvEElEdeB7v160006Ev, symObjAddr: 0x7800, symBinAddr: 0x10000CC4C, symSize: 0x28 }
  - { offsetInCU: 0x10CCB, offset: 0x2563D, size: 0x8, addend: 0x0, symName: __ZNSt12out_of_rangeC1B7v160006EPKc, symObjAddr: 0x788C, symBinAddr: 0x10000CCD8, symSize: 0x34 }
  - { offsetInCU: 0x10D01, offset: 0x25673, size: 0x8, addend: 0x0, symName: __ZNSt12out_of_rangeC2B7v160006EPKc, symObjAddr: 0x78C0, symBinAddr: 0x10000CD0C, symSize: 0x4C }
  - { offsetInCU: 0x10D5A, offset: 0x256CC, size: 0x8, addend: 0x0, symName: '__ZZN9TestSuite9run_testsEiPPcENK3$_0clENSt3__14pairINS3_12basic_stringIcNS3_11char_traitsIcEENS3_9allocatorIcEEEE8TestCaseEE', symObjAddr: 0x790C, symBinAddr: 0x10000CD58, symSize: 0x30 }
  - { offsetInCU: 0x10D92, offset: 0x25704, size: 0x8, addend: 0x0, symName: __ZNSt3__14pairINS_12basic_stringIcNS_11char_traitsIcEENS_9allocatorIcEEEE8TestCaseEC1B7v160006IRNS0_IKS6_S7_EELPv0EEEOT_, symObjAddr: 0x793C, symBinAddr: 0x10000CD88, symSize: 0x34 }
  - { offsetInCU: 0x10DD9, offset: 0x2574B, size: 0x8, addend: 0x0, symName: __ZNSt3__14pairINS_12basic_stringIcNS_11char_traitsIcEENS_9allocatorIcEEEE8TestCaseED1Ev, symObjAddr: 0x7970, symBinAddr: 0x10000CDBC, symSize: 0x2C }
  - { offsetInCU: 0x10E04, offset: 0x25776, size: 0x8, addend: 0x0, symName: __ZNSt3__14pairINS_12basic_stringIcNS_11char_traitsIcEENS_9allocatorIcEEEE8TestCaseEC2B7v160006IRNS0_IKS6_S7_EELPv0EEEOT_, symObjAddr: 0x799C, symBinAddr: 0x10000CDE8, symSize: 0x80 }
  - { offsetInCU: 0x10E55, offset: 0x257C7, size: 0x8, addend: 0x0, symName: __ZN8TestCaseC1ERKS_, symObjAddr: 0x7A64, symBinAddr: 0x10000CEB0, symSize: 0x34 }
  - { offsetInCU: 0x10E89, offset: 0x257FB, size: 0x8, addend: 0x0, symName: __ZNSt3__110__get_pairILm0EE3getB7v160006IKNS_12basic_stringIcNS_11char_traitsIcEENS_9allocatorIcEEEE8TestCaseEERT_RNS_4pairISB_T0_EE, symObjAddr: 0x7A98, symBinAddr: 0x10000CEE4, symSize: 0x14 }
  - { offsetInCU: 0x10EC4, offset: 0x25836, size: 0x8, addend: 0x0, symName: __ZNSt3__110__get_pairILm1EE3getB7v160006IKNS_12basic_stringIcNS_11char_traitsIcEENS_9allocatorIcEEEE8TestCaseEERT0_RNS_4pairIT_SB_EE, symObjAddr: 0x7AAC, symBinAddr: 0x10000CEF8, symSize: 0x18 }
  - { offsetInCU: 0x10EFA, offset: 0x2586C, size: 0x8, addend: 0x0, symName: __ZN8TestCaseC2ERKS_, symObjAddr: 0x7AC4, symBinAddr: 0x10000CF10, symSize: 0xB4 }
  - { offsetInCU: 0x10F2E, offset: 0x258A0, size: 0x8, addend: 0x0, symName: __ZNSt3__14pairINS_12basic_stringIcNS_11char_traitsIcEENS_9allocatorIcEEEE8TestCaseED2Ev, symObjAddr: 0x7B78, symBinAddr: 0x10000CFC4, symSize: 0x38 }
  - { offsetInCU: 0x10F63, offset: 0x258D5, size: 0x8, addend: 0x0, symName: '__ZZN9TestSuite9run_testsEiPPcENK3$_1clENSt3__14pairINS3_12basic_stringIcNS3_11char_traitsIcEENS3_9allocatorIcEEEE8TestCaseEE', symObjAddr: 0x7BB0, symBinAddr: 0x10000CFFC, symSize: 0x30 }
  - { offsetInCU: 0x10F9B, offset: 0x2590D, size: 0x8, addend: 0x0, symName: __ZNSt3__112basic_stringIcNS_11char_traitsIcEENS_9allocatorIcEEEC2B7v160006IDnEEPKc, symObjAddr: 0x7BE0, symBinAddr: 0x10000D02C, symSize: 0x60 }
  - { offsetInCU: 0x10FDD, offset: 0x2594F, size: 0x8, addend: 0x0, symName: __ZNSt3__16vectorINS_12basic_stringIcNS_11char_traitsIcEENS_9allocatorIcEEEENS4_IS6_EEE22__construct_one_at_endB7v160006IJS6_EEEvDpOT_, symObjAddr: 0x7C40, symBinAddr: 0x10000D08C, symSize: 0x90 }
  - { offsetInCU: 0x1102C, offset: 0x2599E, size: 0x8, addend: 0x0, symName: __ZNSt3__16vectorINS_12basic_stringIcNS_11char_traitsIcEENS_9allocatorIcEEEENS4_IS6_EEE21__push_back_slow_pathIS6_EEvOT_, symObjAddr: 0x7CD0, symBinAddr: 0x10000D11C, symSize: 0xD8 }
  - { offsetInCU: 0x110A2, offset: 0x25A14, size: 0x8, addend: 0x0, symName: __ZNSt3__16vectorINS_12basic_stringIcNS_11char_traitsIcEENS_9allocatorIcEEEENS4_IS6_EEE21_ConstructTransactionC1B7v160006ERS8_m, symObjAddr: 0x7DA8, symBinAddr: 0x10000D1F4, symSize: 0x3C }
  - { offsetInCU: 0x110E8, offset: 0x25A5A, size: 0x8, addend: 0x0, symName: __ZNSt3__116allocator_traitsINS_9allocatorINS_12basic_stringIcNS_11char_traitsIcEENS1_IcEEEEEEE9constructB7v160006IS6_JS6_EvEEvRS7_PT_DpOT0_, symObjAddr: 0x7DE4, symBinAddr: 0x10000D230, symSize: 0x34 }
  - { offsetInCU: 0x11141, offset: 0x25AB3, size: 0x8, addend: 0x0, symName: __ZNSt3__16vectorINS_12basic_stringIcNS_11char_traitsIcEENS_9allocatorIcEEEENS4_IS6_EEE21_ConstructTransactionD1B7v160006Ev, symObjAddr: 0x7E18, symBinAddr: 0x10000D264, symSize: 0x2C }
  - { offsetInCU: 0x11169, offset: 0x25ADB, size: 0x8, addend: 0x0, symName: __ZNSt3__16vectorINS_12basic_stringIcNS_11char_traitsIcEENS_9allocatorIcEEEENS4_IS6_EEE21_ConstructTransactionC2B7v160006ERS8_m, symObjAddr: 0x7E44, symBinAddr: 0x10000D290, symSize: 0x4C }
  - { offsetInCU: 0x111B0, offset: 0x25B22, size: 0x8, addend: 0x0, symName: __ZNSt3__19allocatorINS_12basic_stringIcNS_11char_traitsIcEENS0_IcEEEEE9constructB7v160006IS5_JS5_EEEvPT_DpOT0_, symObjAddr: 0x7E90, symBinAddr: 0x10000D2DC, symSize: 0x30 }
  - { offsetInCU: 0x11206, offset: 0x25B78, size: 0x8, addend: 0x0, symName: __ZNSt3__16vectorINS_12basic_stringIcNS_11char_traitsIcEENS_9allocatorIcEEEENS4_IS6_EEE21_ConstructTransactionD2B7v160006Ev, symObjAddr: 0x7EC0, symBinAddr: 0x10000D30C, symSize: 0x20 }
  - { offsetInCU: 0x1122F, offset: 0x25BA1, size: 0x8, addend: 0x0, symName: __ZNKSt3__16vectorINS_12basic_stringIcNS_11char_traitsIcEENS_9allocatorIcEEEENS4_IS6_EEE11__recommendB7v160006Em, symObjAddr: 0x7EE0, symBinAddr: 0x10000D32C, symSize: 0xB4 }
  - { offsetInCU: 0x11283, offset: 0x25BF5, size: 0x8, addend: 0x0, symName: __ZNSt3__114__split_bufferINS_12basic_stringIcNS_11char_traitsIcEENS_9allocatorIcEEEERNS4_IS6_EEEC1EmmS8_, symObjAddr: 0x7F94, symBinAddr: 0x10000D3E0, symSize: 0x44 }
  - { offsetInCU: 0x112D8, offset: 0x25C4A, size: 0x8, addend: 0x0, symName: __ZNSt3__114__split_bufferINS_12basic_stringIcNS_11char_traitsIcEENS_9allocatorIcEEEERNS4_IS6_EEED1Ev, symObjAddr: 0x80F0, symBinAddr: 0x10000D53C, symSize: 0x2C }
  - { offsetInCU: 0x11303, offset: 0x25C75, size: 0x8, addend: 0x0, symName: __ZNKSt3__16vectorINS_12basic_stringIcNS_11char_traitsIcEENS_9allocatorIcEEEENS4_IS6_EEE8max_sizeEv, symObjAddr: 0x811C, symBinAddr: 0x10000D568, symSize: 0x60 }
  - { offsetInCU: 0x1132A, offset: 0x25C9C, size: 0x8, addend: 0x0, symName: __ZNKSt3__16vectorINS_12basic_stringIcNS_11char_traitsIcEENS_9allocatorIcEEEENS4_IS6_EEE20__throw_length_errorB7v160006Ev, symObjAddr: 0x817C, symBinAddr: 0x10000D5C8, symSize: 0x1C }
  - { offsetInCU: 0x11358, offset: 0x25CCA, size: 0x8, addend: 0x0, symName: __ZNSt3__116allocator_traitsINS_9allocatorINS_12basic_stringIcNS_11char_traitsIcEENS1_IcEEEEEEE8max_sizeB7v160006IS7_vEEmRKS7_, symObjAddr: 0x81C4, symBinAddr: 0x10000D5E4, symSize: 0x24 }
  - { offsetInCU: 0x11386, offset: 0x25CF8, size: 0x8, addend: 0x0, symName: __ZNKSt3__16vectorINS_12basic_stringIcNS_11char_traitsIcEENS_9allocatorIcEEEENS4_IS6_EEE7__allocB7v160006Ev, symObjAddr: 0x81E8, symBinAddr: 0x10000D608, symSize: 0x28 }
  - { offsetInCU: 0x113AA, offset: 0x25D1C, size: 0x8, addend: 0x0, symName: __ZNKSt3__19allocatorINS_12basic_stringIcNS_11char_traitsIcEENS0_IcEEEEE8max_sizeB7v160006Ev, symObjAddr: 0x8224, symBinAddr: 0x10000D630, symSize: 0x18 }
  - { offsetInCU: 0x113CF, offset: 0x25D41, size: 0x8, addend: 0x0, symName: __ZNKSt3__117__compressed_pairIPNS_12basic_stringIcNS_11char_traitsIcEENS_9allocatorIcEEEENS4_IS6_EEE6secondB7v160006Ev, symObjAddr: 0x823C, symBinAddr: 0x10000D648, symSize: 0x24 }
  - { offsetInCU: 0x113F3, offset: 0x25D65, size: 0x8, addend: 0x0, symName: __ZNKSt3__122__compressed_pair_elemINS_9allocatorINS_12basic_stringIcNS_11char_traitsIcEENS1_IcEEEEEELi1ELb1EE5__getB7v160006Ev, symObjAddr: 0x8260, symBinAddr: 0x10000D66C, symSize: 0x14 }
  - { offsetInCU: 0x11418, offset: 0x25D8A, size: 0x8, addend: 0x0, symName: __ZNSt3__114__split_bufferINS_12basic_stringIcNS_11char_traitsIcEENS_9allocatorIcEEEERNS4_IS6_EEEC2EmmS8_, symObjAddr: 0x83B4, symBinAddr: 0x10000D680, symSize: 0xE0 }
  - { offsetInCU: 0x1148A, offset: 0x25DFC, size: 0x8, addend: 0x0, symName: __ZNSt3__117__compressed_pairIPNS_12basic_stringIcNS_11char_traitsIcEENS_9allocatorIcEEEERNS4_IS6_EEEC1B7v160006IDnS9_EEOT_OT0_, symObjAddr: 0x8494, symBinAddr: 0x10000D760, symSize: 0x3C }
  - { offsetInCU: 0x114E0, offset: 0x25E52, size: 0x8, addend: 0x0, symName: __ZNSt3__114__split_bufferINS_12basic_stringIcNS_11char_traitsIcEENS_9allocatorIcEEEERNS4_IS6_EEE7__allocB7v160006Ev, symObjAddr: 0x8510, symBinAddr: 0x10000D7DC, symSize: 0x28 }
  - { offsetInCU: 0x11504, offset: 0x25E76, size: 0x8, addend: 0x0, symName: __ZNSt3__114__split_bufferINS_12basic_stringIcNS_11char_traitsIcEENS_9allocatorIcEEEERNS4_IS6_EEE9__end_capB7v160006Ev, symObjAddr: 0x8538, symBinAddr: 0x10000D804, symSize: 0x28 }
  - { offsetInCU: 0x11528, offset: 0x25E9A, size: 0x8, addend: 0x0, symName: __ZNSt3__117__compressed_pairIPNS_12basic_stringIcNS_11char_traitsIcEENS_9allocatorIcEEEERNS4_IS6_EEEC2B7v160006IDnS9_EEOT_OT0_, symObjAddr: 0x8560, symBinAddr: 0x10000D82C, symSize: 0x48 }
  - { offsetInCU: 0x1157E, offset: 0x25EF0, size: 0x8, addend: 0x0, symName: __ZNSt3__122__compressed_pair_elemIRNS_9allocatorINS_12basic_stringIcNS_11char_traitsIcEENS1_IcEEEEEELi1ELb0EEC2B7v160006IS8_vEEOT_, symObjAddr: 0x85A8, symBinAddr: 0x10000D874, symSize: 0x20 }
  - { offsetInCU: 0x115BF, offset: 0x25F31, size: 0x8, addend: 0x0, symName: __ZNSt3__19allocatorINS_12basic_stringIcNS_11char_traitsIcEENS0_IcEEEEE8allocateB7v160006Em, symObjAddr: 0x85C8, symBinAddr: 0x10000D894, symSize: 0x5C }
  - { offsetInCU: 0x115F1, offset: 0x25F63, size: 0x8, addend: 0x0, symName: __ZNSt3__117__compressed_pairIPNS_12basic_stringIcNS_11char_traitsIcEENS_9allocatorIcEEEERNS4_IS6_EEE6secondB7v160006Ev, symObjAddr: 0x8624, symBinAddr: 0x10000D8F0, symSize: 0x28 }
  - { offsetInCU: 0x11615, offset: 0x25F87, size: 0x8, addend: 0x0, symName: __ZNSt3__122__compressed_pair_elemIRNS_9allocatorINS_12basic_stringIcNS_11char_traitsIcEENS1_IcEEEEEELi1ELb0EE5__getB7v160006Ev, symObjAddr: 0x864C, symBinAddr: 0x10000D918, symSize: 0x18 }
  - { offsetInCU: 0x1163A, offset: 0x25FAC, size: 0x8, addend: 0x0, symName: __ZNSt3__117__compressed_pairIPNS_12basic_stringIcNS_11char_traitsIcEENS_9allocatorIcEEEERNS4_IS6_EEE5firstB7v160006Ev, symObjAddr: 0x8664, symBinAddr: 0x10000D930, symSize: 0x24 }
  - { offsetInCU: 0x1165E, offset: 0x25FD0, size: 0x8, addend: 0x0, symName: __ZNSt3__116reverse_iteratorIPNS_12basic_stringIcNS_11char_traitsIcEENS_9allocatorIcEEEEEC1B7v160006ES7_, symObjAddr: 0x87B4, symBinAddr: 0x10000DA80, symSize: 0x34 }
  - { offsetInCU: 0x11694, offset: 0x26006, size: 0x8, addend: 0x0, symName: __ZNKSt3__116reverse_iteratorIPNS_12basic_stringIcNS_11char_traitsIcEENS_9allocatorIcEEEEE4baseB7v160006Ev, symObjAddr: 0x87E8, symBinAddr: 0x10000DAB4, symSize: 0x18 }
  - { offsetInCU: 0x116B9, offset: 0x2602B, size: 0x8, addend: 0x0, symName: __ZNKSt3__16vectorINS_12basic_stringIcNS_11char_traitsIcEENS_9allocatorIcEEEENS4_IS6_EEE14__annotate_newB7v160006Em, symObjAddr: 0x883C, symBinAddr: 0x10000DB08, symSize: 0xC8 }
  - { offsetInCU: 0x116EC, offset: 0x2605E, size: 0x8, addend: 0x0, symName: __ZNSt3__129_AllocatorDestroyRangeReverseINS_9allocatorINS_12basic_stringIcNS_11char_traitsIcEENS1_IcEEEEEENS_16reverse_iteratorIPS6_EEEC1B7v160006ERS7_RSA_SD_, symObjAddr: 0x8950, symBinAddr: 0x10000DC1C, symSize: 0x44 }
  - { offsetInCU: 0x11741, offset: 0x260B3, size: 0x8, addend: 0x0, symName: __ZNKSt3__116reverse_iteratorIPNS_12basic_stringIcNS_11char_traitsIcEENS_9allocatorIcEEEEEdeB7v160006Ev, symObjAddr: 0x8A00, symBinAddr: 0x10000DCCC, symSize: 0x28 }
  - { offsetInCU: 0x11774, offset: 0x260E6, size: 0x8, addend: 0x0, symName: __ZNSt3__116reverse_iteratorIPNS_12basic_stringIcNS_11char_traitsIcEENS_9allocatorIcEEEEEppB7v160006Ev, symObjAddr: 0x8A28, symBinAddr: 0x10000DCF4, symSize: 0x20 }
  - { offsetInCU: 0x11799, offset: 0x2610B, size: 0x8, addend: 0x0, symName: __ZNSt3__128__exception_guard_exceptionsINS_29_AllocatorDestroyRangeReverseINS_9allocatorINS_12basic_stringIcNS_11char_traitsIcEENS2_IcEEEEEENS_16reverse_iteratorIPS7_EEEEE10__completeB7v160006Ev, symObjAddr: 0x8A48, symBinAddr: 0x10000DD14, symSize: 0x1C }
  - { offsetInCU: 0x117BE, offset: 0x26130, size: 0x8, addend: 0x0, symName: __ZNSt3__128__exception_guard_exceptionsINS_29_AllocatorDestroyRangeReverseINS_9allocatorINS_12basic_stringIcNS_11char_traitsIcEENS2_IcEEEEEENS_16reverse_iteratorIPS7_EEEEED1B7v160006Ev, symObjAddr: 0x8A64, symBinAddr: 0x10000DD30, symSize: 0x2C }
  - { offsetInCU: 0x117E6, offset: 0x26158, size: 0x8, addend: 0x0, symName: __ZNSt3__128__exception_guard_exceptionsINS_29_AllocatorDestroyRangeReverseINS_9allocatorINS_12basic_stringIcNS_11char_traitsIcEENS2_IcEEEEEENS_16reverse_iteratorIPS7_EEEEEC1B7v160006ESC_, symObjAddr: 0x8A90, symBinAddr: 0x10000DD5C, symSize: 0x34 }
  - { offsetInCU: 0x1181D, offset: 0x2618F, size: 0x8, addend: 0x0, symName: __ZNSt3__128__exception_guard_exceptionsINS_29_AllocatorDestroyRangeReverseINS_9allocatorINS_12basic_stringIcNS_11char_traitsIcEENS2_IcEEEEEENS_16reverse_iteratorIPS7_EEEEEC2B7v160006ESC_, symObjAddr: 0x8AC4, symBinAddr: 0x10000DD90, symSize: 0x30 }
  - { offsetInCU: 0x11855, offset: 0x261C7, size: 0x8, addend: 0x0, symName: __ZNSt3__129_AllocatorDestroyRangeReverseINS_9allocatorINS_12basic_stringIcNS_11char_traitsIcEENS1_IcEEEEEENS_16reverse_iteratorIPS6_EEEC2B7v160006ERS7_RSA_SD_, symObjAddr: 0x8AF4, symBinAddr: 0x10000DDC0, symSize: 0x38 }
  - { offsetInCU: 0x118B0, offset: 0x26222, size: 0x8, addend: 0x0, symName: __ZNSt3__119__to_address_helperINS_16reverse_iteratorIPNS_12basic_stringIcNS_11char_traitsIcEENS_9allocatorIcEEEEEEvE6__callB7v160006ERKS9_, symObjAddr: 0x8B2C, symBinAddr: 0x10000DDF8, symSize: 0x38 }
  - { offsetInCU: 0x118D3, offset: 0x26245, size: 0x8, addend: 0x0, symName: __ZNKSt3__116reverse_iteratorIPNS_12basic_stringIcNS_11char_traitsIcEENS_9allocatorIcEEEEEptB7v160006Ev, symObjAddr: 0x8B64, symBinAddr: 0x10000DE30, symSize: 0x24 }
  - { offsetInCU: 0x118F7, offset: 0x26269, size: 0x8, addend: 0x0, symName: __ZNSt3__128__exception_guard_exceptionsINS_29_AllocatorDestroyRangeReverseINS_9allocatorINS_12basic_stringIcNS_11char_traitsIcEENS2_IcEEEEEENS_16reverse_iteratorIPS7_EEEEED2B7v160006Ev, symObjAddr: 0x8B88, symBinAddr: 0x10000DE54, symSize: 0x50 }
  - { offsetInCU: 0x1191F, offset: 0x26291, size: 0x8, addend: 0x0, symName: __ZNKSt3__129_AllocatorDestroyRangeReverseINS_9allocatorINS_12basic_stringIcNS_11char_traitsIcEENS1_IcEEEEEENS_16reverse_iteratorIPS6_EEEclB7v160006Ev, symObjAddr: 0x8BD8, symBinAddr: 0x10000DEA4, symSize: 0xB4 }
  - { offsetInCU: 0x11944, offset: 0x262B6, size: 0x8, addend: 0x0, symName: __ZNSt3__116reverse_iteratorINS0_IPNS_12basic_stringIcNS_11char_traitsIcEENS_9allocatorIcEEEEEEEC1B7v160006ES8_, symObjAddr: 0x8CFC, symBinAddr: 0x10000DFC8, symSize: 0x3C }
  - { offsetInCU: 0x1197A, offset: 0x262EC, size: 0x8, addend: 0x0, symName: __ZNSt3__116reverse_iteratorINS0_IPNS_12basic_stringIcNS_11char_traitsIcEENS_9allocatorIcEEEEEEEppB7v160006Ev, symObjAddr: 0x8DBC, symBinAddr: 0x10000E088, symSize: 0x30 }
  - { offsetInCU: 0x1199E, offset: 0x26310, size: 0x8, addend: 0x0, symName: __ZNKSt3__116reverse_iteratorINS0_IPNS_12basic_stringIcNS_11char_traitsIcEENS_9allocatorIcEEEEEEE4baseB7v160006Ev, symObjAddr: 0x8DEC, symBinAddr: 0x10000E0B8, symSize: 0x24 }
  - { offsetInCU: 0x119C8, offset: 0x2633A, size: 0x8, addend: 0x0, symName: __ZNSt3__119__to_address_helperINS_16reverse_iteratorINS1_IPNS_12basic_stringIcNS_11char_traitsIcEENS_9allocatorIcEEEEEEEEvE6__callB7v160006ERKSA_, symObjAddr: 0x8E10, symBinAddr: 0x10000E0DC, symSize: 0x38 }
  - { offsetInCU: 0x119EB, offset: 0x2635D, size: 0x8, addend: 0x0, symName: __ZNKSt3__116reverse_iteratorINS0_IPNS_12basic_stringIcNS_11char_traitsIcEENS_9allocatorIcEEEEEEEptB7v160006Ev, symObjAddr: 0x8E48, symBinAddr: 0x10000E114, symSize: 0x24 }
  - { offsetInCU: 0x11A0F, offset: 0x26381, size: 0x8, addend: 0x0, symName: __ZNKSt3__116reverse_iteratorINS0_IPNS_12basic_stringIcNS_11char_traitsIcEENS_9allocatorIcEEEEEEEdeB7v160006Ev, symObjAddr: 0x8E6C, symBinAddr: 0x10000E138, symSize: 0x34 }
  - { offsetInCU: 0x11A41, offset: 0x263B3, size: 0x8, addend: 0x0, symName: __ZNSt3__116reverse_iteratorIPNS_12basic_stringIcNS_11char_traitsIcEENS_9allocatorIcEEEEEmmB7v160006Ev, symObjAddr: 0x8EA0, symBinAddr: 0x10000E16C, symSize: 0x20 }
  - { offsetInCU: 0x11A66, offset: 0x263D8, size: 0x8, addend: 0x0, symName: __ZNSt3__116reverse_iteratorINS0_IPNS_12basic_stringIcNS_11char_traitsIcEENS_9allocatorIcEEEEEEEC2B7v160006ES8_, symObjAddr: 0x8EC0, symBinAddr: 0x10000E18C, symSize: 0x2C }
  - { offsetInCU: 0x11A9D, offset: 0x2640F, size: 0x8, addend: 0x0, symName: __ZNSt3__116reverse_iteratorIPNS_12basic_stringIcNS_11char_traitsIcEENS_9allocatorIcEEEEEC2B7v160006ES7_, symObjAddr: 0x8EEC, symBinAddr: 0x10000E1B8, symSize: 0x28 }
  - { offsetInCU: 0x11AD4, offset: 0x26446, size: 0x8, addend: 0x0, symName: __ZNSt3__114__split_bufferINS_12basic_stringIcNS_11char_traitsIcEENS_9allocatorIcEEEERNS4_IS6_EEED2Ev, symObjAddr: 0x8F14, symBinAddr: 0x10000E1E0, symSize: 0x8C }
  - { offsetInCU: 0x11AFF, offset: 0x26471, size: 0x8, addend: 0x0, symName: __ZNSt3__114__split_bufferINS_12basic_stringIcNS_11char_traitsIcEENS_9allocatorIcEEEERNS4_IS6_EEE5clearB7v160006Ev, symObjAddr: 0x8FA0, symBinAddr: 0x10000E26C, symSize: 0x28 }
  - { offsetInCU: 0x11B23, offset: 0x26495, size: 0x8, addend: 0x0, symName: __ZNKSt3__114__split_bufferINS_12basic_stringIcNS_11char_traitsIcEENS_9allocatorIcEEEERNS4_IS6_EEE8capacityB7v160006Ev, symObjAddr: 0x8FC8, symBinAddr: 0x10000E294, symSize: 0x40 }
  - { offsetInCU: 0x11B47, offset: 0x264B9, size: 0x8, addend: 0x0, symName: __ZNSt3__114__split_bufferINS_12basic_stringIcNS_11char_traitsIcEENS_9allocatorIcEEEERNS4_IS6_EEE17__destruct_at_endB7v160006EPS6_, symObjAddr: 0x9008, symBinAddr: 0x10000E2D4, symSize: 0x2C }
  - { offsetInCU: 0x11B79, offset: 0x264EB, size: 0x8, addend: 0x0, symName: __ZNSt3__114__split_bufferINS_12basic_stringIcNS_11char_traitsIcEENS_9allocatorIcEEEERNS4_IS6_EEE17__destruct_at_endB7v160006EPS6_NS_17integral_constantIbLb0EEE, symObjAddr: 0x9034, symBinAddr: 0x10000E300, symSize: 0x80 }
  - { offsetInCU: 0x11BB9, offset: 0x2652B, size: 0x8, addend: 0x0, symName: __ZNKSt3__114__split_bufferINS_12basic_stringIcNS_11char_traitsIcEENS_9allocatorIcEEEERNS4_IS6_EEE9__end_capB7v160006Ev, symObjAddr: 0x90B4, symBinAddr: 0x10000E380, symSize: 0x28 }
  - { offsetInCU: 0x11BDD, offset: 0x2654F, size: 0x8, addend: 0x0, symName: __ZNKSt3__117__compressed_pairIPNS_12basic_stringIcNS_11char_traitsIcEENS_9allocatorIcEEEERNS4_IS6_EEE5firstB7v160006Ev, symObjAddr: 0x90DC, symBinAddr: 0x10000E3A8, symSize: 0x24 }
  - { offsetInCU: 0x11C01, offset: 0x26573, size: 0x8, addend: 0x0, symName: __ZNSt3__120back_insert_iteratorINS_6vectorINS_12basic_stringIcNS_11char_traitsIcEENS_9allocatorIcEEEENS5_IS7_EEEEEC1B7v160006ERS9_, symObjAddr: 0x9100, symBinAddr: 0x10000E3CC, symSize: 0x34 }
  - { offsetInCU: 0x11C37, offset: 0x265A9, size: 0x8, addend: 0x0, symName: __ZNSt3__120back_insert_iteratorINS_6vectorINS_12basic_stringIcNS_11char_traitsIcEENS_9allocatorIcEEEENS5_IS7_EEEEEC2B7v160006ERS9_, symObjAddr: 0x9134, symBinAddr: 0x10000E400, symSize: 0x20 }
  - { offsetInCU: 0x11C78, offset: 0x265EA, size: 0x8, addend: 0x0, symName: '__ZZN9TestSuite21get_test_names_to_runEiPPcENK3$_2clERKNSt3__14pairINS3_12basic_stringIcNS3_11char_traitsIcEENS3_9allocatorIcEEEE8TestCaseEE', symObjAddr: 0x9154, symBinAddr: 0x10000E420, symSize: 0x3C }
  - { offsetInCU: 0x11CAF, offset: 0x26621, size: 0x8, addend: 0x0, symName: __ZNSt3__120back_insert_iteratorINS_6vectorINS_12basic_stringIcNS_11char_traitsIcEENS_9allocatorIcEEEENS5_IS7_EEEEEdeB7v160006Ev, symObjAddr: 0x9190, symBinAddr: 0x10000E45C, symSize: 0x14 }
  - { offsetInCU: 0x11CD4, offset: 0x26646, size: 0x8, addend: 0x0, symName: __ZNSt3__120back_insert_iteratorINS_6vectorINS_12basic_stringIcNS_11char_traitsIcEENS_9allocatorIcEEEENS5_IS7_EEEEEaSB7v160006EOS7_, symObjAddr: 0x91A4, symBinAddr: 0x10000E470, symSize: 0x38 }
  - { offsetInCU: 0x11D06, offset: 0x26678, size: 0x8, addend: 0x0, symName: __ZNSt3__120back_insert_iteratorINS_6vectorINS_12basic_stringIcNS_11char_traitsIcEENS_9allocatorIcEEEENS5_IS7_EEEEEppB7v160006Ev, symObjAddr: 0x91DC, symBinAddr: 0x10000E4A8, symSize: 0x14 }
...
